(lp0
(lp1
S'1 * 2 + 1'
p2
a(I7
I00
tp3
aa(lp4
S'1 * 2 + 2'
p5
a(I1
I00
tp6
aa(lp7
S'1 * 2 + 3'
p8
a(I5
I01
tp9
aa(lp10
S'1 * 2 + 4'
p11
a(I6
I01
tp12
aa(lp13
S'1 * 2 + 5'
p14
a(I4
I00
tp15
aa(lp16
S'1 * 2 + 6'
p17
a(I8
I01
tp18
aa(lp19
S'1 * 2 + 7'
p20
a(I7
I00
tp21
aa(lp22
S'1 * 2 + 8'
p23
a(I8
I00
tp24
aa(lp25
S'1 * 2 + 9'
p26
a(I9
I00
tp27
aa(lp28
S'1 * 2 - 1'
p29
a(I4
I00
tp30
aa(lp31
S'1 * 2 - 2'
p32
a(I0
I01
tp33
aa(lp34
S'1 * 3 + 1'
p35
a(I4
I01
tp36
aa(lp37
S'1 * 3 + 2'
p38
a(I5
I01
tp39
aa(lp40
S'1 * 3 + 3'
p41
a(I2
I00
tp42
aa(lp43
S'1 * 3 + 4'
p44
a(I7
I01
tp45
aa(lp46
S'1 * 3 + 5'
p47
a(I7
I00
tp48
aa(lp49
S'1 * 3 + 6'
p50
a(I4
I00
tp51
aa(lp52
S'1 * 3 + 7'
p53
a(I10
I01
tp54
aa(lp55
S'1 * 3 + 8'
p56
a(I11
I01
tp57
aa(lp58
S'1 * 3 + 9'
p59
a(I12
I01
tp60
aa(lp61
S'1 * 3 - 1'
p62
a(I4
I00
tp63
aa(lp64
S'1 * 3 - 2'
p65
a(I1
I01
tp66
aa(lp67
S'1 * 3 - 3'
p68
a(I5
I00
tp69
aa(lp70
S'1 * 4 + 1'
p71
a(I1
I00
tp72
aa(lp73
S'1 * 4 + 2'
p74
a(I6
I01
tp75
aa(lp76
S'1 * 4 + 3'
p77
a(I7
I01
tp78
aa(lp79
S'1 * 4 + 4'
p80
a(I8
I01
tp81
aa(lp82
S'1 * 4 + 5'
p83
a(I4
I00
tp84
aa(lp85
S'1 * 4 + 6'
p86
a(I5
I00
tp87
aa(lp88
S'1 * 4 + 7'
p89
a(I11
I01
tp90
aa(lp91
S'1 * 4 + 8'
p92
a(I12
I01
tp93
aa(lp94
S'1 * 4 + 9'
p95
a(I13
I01
tp96
aa(lp97
S'1 * 4 - 1'
p98
a(I3
I01
tp99
aa(lp100
S'1 * 4 - 2'
p101
a(I7
I00
tp102
aa(lp103
S'1 * 4 - 3'
p104
a(I1
I01
tp105
aa(lp106
S'1 * 4 - 4'
p107
a(I2
I00
tp108
aa(lp109
S'1 * 5 + 1'
p110
a(I4
I00
tp111
aa(lp112
S'1 * 5 + 2'
p113
a(I7
I01
tp114
aa(lp115
S'1 * 5 + 3'
p116
a(I3
I00
tp117
aa(lp118
S'1 * 5 + 4'
p119
a(I7
I00
tp120
aa(lp121
S'1 * 5 + 5'
p122
a(I10
I01
tp123
aa(lp124
S'1 * 5 + 6'
p125
a(I11
I01
tp126
aa(lp127
S'1 * 5 + 7'
p128
a(I12
I01
tp129
aa(lp130
S'1 * 5 + 8'
p131
a(I13
I01
tp132
aa(lp133
S'1 * 5 + 9'
p134
a(I12
I00
tp135
aa(lp136
S'1 * 5 - 1'
p137
a(I2
I00
tp138
aa(lp139
S'1 * 5 - 2'
p140
a(I3
I01
tp141
aa(lp142
S'1 * 5 - 3'
p143
a(I2
I01
tp144
aa(lp145
S'1 * 5 - 4'
p146
a(I1
I01
tp147
aa(lp148
S'1 * 5 - 5'
p149
a(I5
I00
tp150
aa(lp151
S'1 * 6 + 1'
p152
a(I7
I01
tp153
aa(lp154
S'1 * 6 + 2'
p155
a(I8
I01
tp156
aa(lp157
S'1 * 6 + 3'
p158
a(I4
I00
tp159
aa(lp160
S'1 * 6 + 4'
p161
a(I10
I01
tp162
aa(lp163
S'1 * 6 + 5'
p164
a(I10
I00
tp165
aa(lp166
S'1 * 6 + 6'
p167
a(I12
I01
tp168
aa(lp169
S'1 * 6 + 7'
p170
a(I10
I00
tp171
aa(lp172
S'1 * 6 + 8'
p173
a(I14
I01
tp174
aa(lp175
S'1 * 6 + 9'
p176
a(I14
I00
tp177
aa(lp178
S'1 * 6 - 1'
p179
a(I3
I00
tp180
aa(lp181
S'1 * 6 - 2'
p182
a(I1
I00
tp183
aa(lp184
S'1 * 6 - 3'
p185
a(I2
I00
tp186
aa(lp187
S'1 * 6 - 4'
p188
a(I2
I01
tp189
aa(lp190
S'1 * 6 - 5'
p191
a(I4
I00
tp192
aa(lp193
S'1 * 6 - 6'
p194
a(I3
I00
tp195
aa(lp196
S'1 * 7 + 1'
p197
a(I7
I00
tp198
aa(lp199
S'1 * 7 + 2'
p200
a(I7
I00
tp201
aa(lp202
S'1 * 7 + 3'
p203
a(I5
I00
tp204
aa(lp205
S'1 * 7 + 4'
p206
a(I11
I01
tp207
aa(lp208
S'1 * 7 + 5'
p209
a(I8
I00
tp210
aa(lp211
S'1 * 7 + 6'
p212
a(I13
I01
tp213
aa(lp214
S'1 * 7 + 7'
p215
a(I14
I01
tp216
aa(lp217
S'1 * 7 + 8'
p218
a(I13
I00
tp219
aa(lp220
S'1 * 7 + 9'
p221
a(I16
I01
tp222
aa(lp223
S'1 * 7 - 1'
p224
a(I2
I00
tp225
aa(lp226
S'1 * 7 - 2'
p227
a(I5
I01
tp228
aa(lp229
S'1 * 7 - 3'
p230
a(I4
I01
tp231
aa(lp232
S'1 * 7 - 4'
p233
a(I0
I00
tp234
aa(lp235
S'1 * 7 - 5'
p236
a(I2
I01
tp237
aa(lp238
S'1 * 7 - 6'
p239
a(I3
I00
tp240
aa(lp241
S'1 * 7 - 7'
p242
a(I2
I00
tp243
aa(lp244
S'1 * 8 + 1'
p245
a(I6
I00
tp246
aa(lp247
S'1 * 8 + 2'
p248
a(I10
I01
tp249
aa(lp250
S'1 * 8 + 3'
p251
a(I6
I00
tp252
aa(lp253
S'1 * 8 + 4'
p254
a(I12
I01
tp255
aa(lp256
S'1 * 8 + 5'
p257
a(I8
I00
tp258
aa(lp259
S'1 * 8 + 6'
p260
a(I11
I00
tp261
aa(lp262
S'1 * 8 + 7'
p263
a(I15
I01
tp264
aa(lp265
S'1 * 8 + 8'
p266
a(I16
I01
tp267
aa(lp268
S'1 * 8 + 9'
p269
a(I16
I00
tp270
aa(lp271
S'1 * 8 - 1'
p272
a(I5
I00
tp273
aa(lp274
S'1 * 8 - 2'
p275
a(I1
I00
tp276
aa(lp277
S'1 * 8 - 3'
p278
a(I0
I00
tp279
aa(lp280
S'1 * 8 - 4'
p281
a(I4
I01
tp282
aa(lp283
S'1 * 8 - 5'
p284
a(I0
I00
tp285
aa(lp286
S'1 * 8 - 6'
p287
a(I0
I00
tp288
aa(lp289
S'1 * 8 - 7'
p290
a(I1
I01
tp291
aa(lp292
S'1 * 8 - 8'
p293
a(I0
I01
tp294
aa(lp295
S'1 * 9 + 1'
p296
a(I10
I01
tp297
aa(lp298
S'1 * 9 + 2'
p299
a(I11
I01
tp300
aa(lp301
S'1 * 9 + 3'
p302
a(I10
I00
tp303
aa(lp304
S'1 * 9 + 4'
p305
a(I13
I01
tp306
aa(lp307
S'1 * 9 + 5'
p308
a(I14
I01
tp309
aa(lp310
S'1 * 9 + 6'
p311
a(I15
I01
tp312
aa(lp313
S'1 * 9 + 7'
p314
a(I14
I00
tp315
aa(lp316
S'1 * 9 + 8'
p317
a(I13
I00
tp318
aa(lp319
S'1 * 9 + 9'
p320
a(I18
I01
tp321
aa(lp322
S'1 * 9 - 1'
p323
a(I8
I01
tp324
aa(lp325
S'1 * 9 - 2'
p326
a(I7
I01
tp327
aa(lp328
S'1 * 9 - 3'
p329
a(I6
I01
tp330
aa(lp331
S'1 * 9 - 4'
p332
a(I5
I01
tp333
aa(lp334
S'1 * 9 - 5'
p335
a(I4
I01
tp336
aa(lp337
S'1 * 9 - 6'
p338
a(I3
I01
tp339
aa(lp340
S'1 * 9 - 7'
p341
a(I0
I00
tp342
aa(lp343
S'1 * 9 - 8'
p344
a(I5
I00
tp345
aa(lp346
S'1 * 9 - 9'
p347
a(I5
I00
tp348
aa(lp349
S'2 * 1 + 1'
p350
a(I0
I00
tp351
aa(lp352
S'2 * 1 + 2'
p353
a(I4
I01
tp354
aa(lp355
S'2 * 1 + 3'
p356
a(I5
I01
tp357
aa(lp358
S'2 * 1 + 4'
p359
a(I5
I00
tp360
aa(lp361
S'2 * 1 + 5'
p362
a(I7
I01
tp363
aa(lp364
S'2 * 1 + 6'
p365
a(I3
I00
tp366
aa(lp367
S'2 * 1 + 7'
p368
a(I6
I00
tp369
aa(lp370
S'2 * 1 + 8'
p371
a(I6
I00
tp372
aa(lp373
S'2 * 1 + 9'
p374
a(I11
I01
tp375
aa(lp376
S'2 * 1 - 1'
p377
a(I1
I01
tp378
aa(lp379
S'2 * 1 - 2'
p380
a(I2
I00
tp381
aa(lp382
S'2 * 3 + 1'
p383
a(I4
I00
tp384
aa(lp385
S'2 * 3 + 2'
p386
a(I3
I00
tp387
aa(lp388
S'2 * 3 + 3'
p389
a(I9
I01
tp390
aa(lp391
S'2 * 3 + 4'
p392
a(I10
I01
tp393
aa(lp394
S'2 * 3 + 5'
p395
a(I11
I01
tp396
aa(lp397
S'2 * 3 + 6'
p398
a(I7
I00
tp399
aa(lp400
S'2 * 3 + 7'
p401
a(I13
I01
tp402
aa(lp403
S'2 * 3 + 8'
p404
a(I14
I01
tp405
aa(lp406
S'2 * 3 + 9'
p407
a(I15
I01
tp408
aa(lp409
S'2 * 3 - 1'
p410
a(I1
I00
tp411
aa(lp412
S'2 * 3 - 2'
p413
a(I4
I01
tp414
aa(lp415
S'2 * 3 - 3'
p416
a(I1
I00
tp417
aa(lp418
S'2 * 3 - 4'
p419
a(I2
I01
tp420
aa(lp421
S'2 * 3 - 5'
p422
a(I5
I00
tp423
aa(lp424
S'2 * 3 - 6'
p425
a(I0
I01
tp426
aa(lp427
S'2 * 4 + 1'
p428
a(I7
I00
tp429
aa(lp430
S'2 * 4 + 2'
p431
a(I6
I00
tp432
aa(lp433
S'2 * 4 + 3'
p434
a(I11
I01
tp435
aa(lp436
S'2 * 4 + 4'
p437
a(I12
I01
tp438
aa(lp439
S'2 * 4 + 5'
p440
a(I8
I00
tp441
aa(lp442
S'2 * 4 + 6'
p443
a(I14
I01
tp444
aa(lp445
S'2 * 4 + 7'
p446
a(I15
I01
tp447
aa(lp448
S'2 * 4 + 8'
p449
a(I16
I01
tp450
aa(lp451
S'2 * 4 + 9'
p452
a(I17
I01
tp453
aa(lp454
S'2 * 4 - 1'
p455
a(I2
I00
tp456
aa(lp457
S'2 * 4 - 2'
p458
a(I6
I01
tp459
aa(lp460
S'2 * 4 - 3'
p461
a(I2
I00
tp462
aa(lp463
S'2 * 4 - 4'
p464
a(I0
I00
tp465
aa(lp466
S'2 * 4 - 5'
p467
a(I2
I00
tp468
aa(lp469
S'2 * 4 - 6'
p470
a(I2
I01
tp471
aa(lp472
S'2 * 4 - 7'
p473
a(I2
I00
tp474
aa(lp475
S'2 * 4 - 8'
p476
a(I4
I00
tp477
aa(lp478
S'2 * 5 + 1'
p479
a(I11
I01
tp480
aa(lp481
S'2 * 5 + 2'
p482
a(I12
I01
tp483
aa(lp484
S'2 * 5 + 3'
p485
a(I13
I01
tp486
aa(lp487
S'2 * 5 + 4'
p488
a(I14
I01
tp489
aa(lp490
S'2 * 5 + 5'
p491
a(I15
I01
tp492
aa(lp493
S'2 * 5 + 6'
p494
a(I12
I00
tp495
aa(lp496
S'2 * 5 + 7'
p497
a(I13
I00
tp498
aa(lp499
S'2 * 5 + 8'
p500
a(I18
I01
tp501
aa(lp502
S'2 * 5 + 9'
p503
a(I19
I01
tp504
aa(lp505
S'2 * 5 - 1'
p506
a(I8
I00
tp507
aa(lp508
S'2 * 5 - 2'
p509
a(I3
I00
tp510
aa(lp511
S'2 * 5 - 3'
p512
a(I6
I00
tp513
aa(lp514
S'2 * 5 - 4'
p515
a(I5
I00
tp516
aa(lp517
S'2 * 5 - 5'
p518
a(I0
I00
tp519
aa(lp520
S'2 * 5 - 6'
p521
a(I4
I01
tp522
aa(lp523
S'2 * 5 - 7'
p524
a(I7
I00
tp525
aa(lp526
S'2 * 5 - 8'
p527
a(I2
I01
tp528
aa(lp529
S'2 * 5 - 9'
p530
a(I1
I01
tp531
aa(lp532
S'2 * 6 + 1'
p533
a(I13
I01
tp534
aa(lp535
S'2 * 6 + 2'
p536
a(I12
I00
tp537
aa(lp538
S'2 * 6 + 3'
p539
a(I15
I01
tp540
aa(lp541
S'2 * 6 + 4'
p542
a(I16
I01
tp543
aa(lp544
S'2 * 6 + 5'
p545
a(I16
I00
tp546
aa(lp547
S'2 * 6 + 6'
p548
a(I18
I01
tp549
aa(lp550
S'2 * 6 + 7'
p551
a(I19
I01
tp552
aa(lp553
S'2 * 6 + 8'
p554
a(I19
I00
tp555
aa(lp556
S'2 * 6 + 9'
p557
a(I18
I00
tp558
aa(lp559
S'2 * 6 - 1'
p560
a(I11
I01
tp561
aa(lp562
S'2 * 6 - 2'
p563
a(I10
I01
tp564
aa(lp565
S'2 * 6 - 3'
p566
a(I7
I00
tp567
aa(lp568
S'2 * 6 - 4'
p569
a(I5
I00
tp570
aa(lp571
S'2 * 6 - 5'
p572
a(I5
I00
tp573
aa(lp574
S'2 * 6 - 6'
p575
a(I6
I01
tp576
aa(lp577
S'2 * 6 - 7'
p578
a(I2
I00
tp579
aa(lp580
S'2 * 6 - 8'
p581
a(I2
I00
tp582
aa(lp583
S'2 * 6 - 9'
p584
a(I2
I00
tp585
aa(lp586
S'2 * 7 + 1'
p587
a(I15
I01
tp588
aa(lp589
S'2 * 7 + 2'
p590
a(I12
I00
tp591
aa(lp592
S'2 * 7 + 3'
p593
a(I14
I00
tp594
aa(lp595
S'2 * 7 + 4'
p596
a(I15
I00
tp597
aa(lp598
S'2 * 7 + 5'
p599
a(I19
I01
tp600
aa(lp601
S'2 * 7 + 6'
p602
a(I20
I01
tp603
aa(lp604
S'2 * 7 + 7'
p605
a(I20
I00
tp606
aa(lp607
S'2 * 7 + 8'
p608
a(I18
I00
tp609
aa(lp610
S'2 * 7 + 9'
p611
a(I23
I01
tp612
aa(lp613
S'2 * 7 - 1'
p614
a(I13
I01
tp615
aa(lp616
S'2 * 7 - 2'
p617
a(I11
I00
tp618
aa(lp619
S'2 * 7 - 3'
p620
a(I11
I01
tp621
aa(lp622
S'2 * 7 - 4'
p623
a(I10
I01
tp624
aa(lp625
S'2 * 7 - 5'
p626
a(I9
I01
tp627
aa(lp628
S'2 * 7 - 6'
p629
a(I7
I00
tp630
aa(lp631
S'2 * 7 - 7'
p632
a(I6
I00
tp633
aa(lp634
S'2 * 7 - 8'
p635
a(I6
I01
tp636
aa(lp637
S'2 * 7 - 9'
p638
a(I0
I00
tp639
aa(lp640
S'2 * 8 + 1'
p641
a(I17
I01
tp642
aa(lp643
S'2 * 8 + 2'
p644
a(I18
I01
tp645
aa(lp646
S'2 * 8 + 3'
p647
a(I16
I00
tp648
aa(lp649
S'2 * 8 + 4'
p650
a(I15
I00
tp651
aa(lp652
S'2 * 8 + 5'
p653
a(I18
I00
tp654
aa(lp655
S'2 * 8 + 6'
p656
a(I22
I01
tp657
aa(lp658
S'2 * 8 + 7'
p659
a(I22
I00
tp660
aa(lp661
S'2 * 8 + 8'
p662
a(I24
I01
tp663
aa(lp664
S'2 * 8 + 9'
p665
a(I25
I01
tp666
aa(lp667
S'2 * 8 - 1'
p668
a(I15
I01
tp669
aa(lp670
S'2 * 8 - 2'
p671
a(I14
I01
tp672
aa(lp673
S'2 * 8 - 3'
p674
a(I13
I01
tp675
aa(lp676
S'2 * 8 - 4'
p677
a(I12
I01
tp678
aa(lp679
S'2 * 8 - 5'
p680
a(I7
I00
tp681
aa(lp682
S'2 * 8 - 6'
p683
a(I9
I00
tp684
aa(lp685
S'2 * 8 - 7'
p686
a(I4
I00
tp687
aa(lp688
S'2 * 8 - 8'
p689
a(I6
I00
tp690
aa(lp691
S'2 * 8 - 9'
p692
a(I5
I00
tp693
aa(lp694
S'2 * 9 + 1'
p695
a(I16
I00
tp696
aa(lp697
S'2 * 9 + 2'
p698
a(I20
I01
tp699
aa(lp700
S'2 * 9 + 3'
p701
a(I17
I00
tp702
aa(lp703
S'2 * 9 + 4'
p704
a(I21
I00
tp705
aa(lp706
S'2 * 9 + 5'
p707
a(I23
I01
tp708
aa(lp709
S'2 * 9 + 6'
p710
a(I24
I01
tp711
aa(lp712
S'2 * 9 + 7'
p713
a(I25
I01
tp714
aa(lp715
S'2 * 9 + 8'
p716
a(I26
I01
tp717
aa(lp718
S'2 * 9 + 9'
p719
a(I23
I00
tp720
aa(lp721
S'2 * 9 - 1'
p722
a(I15
I00
tp723
aa(lp724
S'2 * 9 - 2'
p725
a(I16
I01
tp726
aa(lp727
S'2 * 9 - 3'
p728
a(I13
I00
tp729
aa(lp730
S'2 * 9 - 4'
p731
a(I14
I01
tp732
aa(lp733
S'2 * 9 - 5'
p734
a(I13
I01
tp735
aa(lp736
S'2 * 9 - 6'
p737
a(I12
I01
tp738
aa(lp739
S'2 * 9 - 7'
p740
a(I11
I01
tp741
aa(lp742
S'2 * 9 - 8'
p743
a(I10
I01
tp744
aa(lp745
S'2 * 9 - 9'
p746
a(I9
I01
tp747
aa(lp748
S'3 * 1 + 1'
p749
a(I4
I01
tp750
aa(lp751
S'3 * 1 + 2'
p752
a(I5
I01
tp753
aa(lp754
S'3 * 1 + 3'
p755
a(I6
I01
tp756
aa(lp757
S'3 * 1 + 4'
p758
a(I2
I00
tp759
aa(lp760
S'3 * 1 + 5'
p761
a(I6
I00
tp762
aa(lp763
S'3 * 1 + 6'
p764
a(I9
I01
tp765
aa(lp766
S'3 * 1 + 7'
p767
a(I5
I00
tp768
aa(lp769
S'3 * 1 + 8'
p770
a(I8
I00
tp771
aa(lp772
S'3 * 1 + 9'
p773
a(I7
I00
tp774
aa(lp775
S'3 * 1 - 1'
p776
a(I1
I00
tp777
aa(lp778
S'3 * 1 - 2'
p779
a(I4
I00
tp780
aa(lp781
S'3 * 1 - 3'
p782
a(I4
I00
tp783
aa(lp784
S'3 * 2 + 1'
p785
a(I7
I01
tp786
aa(lp787
S'3 * 2 + 2'
p788
a(I7
I00
tp789
aa(lp790
S'3 * 2 + 3'
p791
a(I5
I00
tp792
aa(lp793
S'3 * 2 + 4'
p794
a(I6
I00
tp795
aa(lp796
S'3 * 2 + 5'
p797
a(I8
I00
tp798
aa(lp799
S'3 * 2 + 6'
p800
a(I12
I01
tp801
aa(lp802
S'3 * 2 + 7'
p803
a(I11
I00
tp804
aa(lp805
S'3 * 2 + 8'
p806
a(I9
I00
tp807
aa(lp808
S'3 * 2 + 9'
p809
a(I15
I01
tp810
aa(lp811
S'3 * 2 - 1'
p812
a(I5
I01
tp813
aa(lp814
S'3 * 2 - 2'
p815
a(I2
I00
tp816
aa(lp817
S'3 * 2 - 3'
p818
a(I2
I00
tp819
aa(lp820
S'3 * 2 - 4'
p821
a(I5
I00
tp822
aa(lp823
S'3 * 2 - 5'
p824
a(I1
I01
tp825
aa(lp826
S'3 * 2 - 6'
p827
a(I0
I01
tp828
aa(lp829
S'3 * 4 + 1'
p830
a(I11
I00
tp831
aa(lp832
S'3 * 4 + 2'
p833
a(I14
I01
tp834
aa(lp835
S'3 * 4 + 3'
p836
a(I15
I01
tp837
aa(lp838
S'3 * 4 + 4'
p839
a(I16
I01
tp840
aa(lp841
S'3 * 4 + 5'
p842
a(I12
I00
tp843
aa(lp844
S'3 * 4 + 6'
p845
a(I18
I01
tp846
aa(lp847
S'3 * 4 + 7'
p848
a(I14
I00
tp849
aa(lp850
S'3 * 4 + 8'
p851
a(I16
I00
tp852
aa(lp853
S'3 * 4 + 9'
p854
a(I16
I00
tp855
aa(lp856
S'3 * 4 - 1'
p857
a(I7
I00
tp858
aa(lp859
S'3 * 4 - 2'
p860
a(I7
I00
tp861
aa(lp862
S'3 * 4 - 3'
p863
a(I7
I00
tp864
aa(lp865
S'3 * 4 - 4'
p866
a(I7
I00
tp867
aa(lp868
S'3 * 4 - 5'
p869
a(I6
I00
tp870
aa(lp871
S'3 * 4 - 6'
p872
a(I4
I00
tp873
aa(lp874
S'3 * 4 - 7'
p875
a(I5
I01
tp876
aa(lp877
S'3 * 4 - 8'
p878
a(I4
I01
tp879
aa(lp880
S'3 * 4 - 9'
p881
a(I3
I01
tp882
aa(lp883
S'3 * 5 + 1'
p884
a(I16
I01
tp885
aa(lp886
S'3 * 5 + 2'
p887
a(I17
I01
tp888
aa(lp889
S'3 * 5 + 3'
p890
a(I18
I01
tp891
aa(lp892
S'3 * 5 + 4'
p893
a(I14
I00
tp894
aa(lp895
S'3 * 5 + 5'
p896
a(I20
I01
tp897
aa(lp898
S'3 * 5 + 6'
p899
a(I19
I00
tp900
aa(lp901
S'3 * 5 + 7'
p902
a(I18
I00
tp903
aa(lp904
S'3 * 5 + 8'
p905
a(I18
I00
tp906
aa(lp907
S'3 * 5 + 9'
p908
a(I24
I01
tp909
aa(lp910
S'3 * 5 - 1'
p911
a(I14
I01
tp912
aa(lp913
S'3 * 5 - 2'
p914
a(I12
I00
tp915
aa(lp916
S'3 * 5 - 3'
p917
a(I12
I01
tp918
aa(lp919
S'3 * 5 - 4'
p920
a(I11
I01
tp921
aa(lp922
S'3 * 5 - 5'
p923
a(I10
I01
tp924
aa(lp925
S'3 * 5 - 6'
p926
a(I9
I01
tp927
aa(lp928
S'3 * 5 - 7'
p929
a(I6
I00
tp930
aa(lp931
S'3 * 5 - 8'
p932
a(I4
I00
tp933
aa(lp934
S'3 * 5 - 9'
p935
a(I3
I00
tp936
aa(lp937
S'3 * 6 + 1'
p938
a(I16
I00
tp939
aa(lp940
S'3 * 6 + 2'
p941
a(I19
I00
tp942
aa(lp943
S'3 * 6 + 3'
p944
a(I21
I01
tp945
aa(lp946
S'3 * 6 + 4'
p947
a(I17
I00
tp948
aa(lp949
S'3 * 6 + 5'
p950
a(I20
I00
tp951
aa(lp952
S'3 * 6 + 6'
p953
a(I24
I01
tp954
aa(lp955
S'3 * 6 + 7'
p956
a(I25
I01
tp957
aa(lp958
S'3 * 6 + 8'
p959
a(I26
I01
tp960
aa(lp961
S'3 * 6 + 9'
p962
a(I27
I01
tp963
aa(lp964
S'3 * 6 - 1'
p965
a(I17
I01
tp966
aa(lp967
S'3 * 6 - 2'
p968
a(I16
I01
tp969
aa(lp970
S'3 * 6 - 3'
p971
a(I14
I00
tp972
aa(lp973
S'3 * 6 - 4'
p974
a(I10
I00
tp975
aa(lp976
S'3 * 6 - 5'
p977
a(I12
I00
tp978
aa(lp979
S'3 * 6 - 6'
p980
a(I12
I01
tp981
aa(lp982
S'3 * 6 - 7'
p983
a(I8
I00
tp984
aa(lp985
S'3 * 6 - 8'
p986
a(I10
I01
tp987
aa(lp988
S'3 * 6 - 9'
p989
a(I5
I00
tp990
aa(lp991
S'3 * 7 + 1'
p992
a(I22
I01
tp993
aa(lp994
S'3 * 7 + 2'
p995
a(I23
I01
tp996
aa(lp997
S'3 * 7 + 3'
p998
a(I22
I00
tp999
aa(lp1000
S'3 * 7 + 4'
p1001
a(I25
I01
tp1002
aa(lp1003
S'3 * 7 + 5'
p1004
a(I23
I00
tp1005
aa(lp1006
S'3 * 7 + 6'
p1007
a(I22
I00
tp1008
aa(lp1009
S'3 * 7 + 7'
p1010
a(I24
I00
tp1011
aa(lp1012
S'3 * 7 + 8'
p1013
a(I27
I00
tp1014
aa(lp1015
S'3 * 7 + 9'
p1016
a(I30
I01
tp1017
aa(lp1018
S'3 * 7 - 1'
p1019
a(I20
I01
tp1020
aa(lp1021
S'3 * 7 - 2'
p1022
a(I17
I00
tp1023
aa(lp1024
S'3 * 7 - 3'
p1025
a(I15
I00
tp1026
aa(lp1027
S'3 * 7 - 4'
p1028
a(I15
I00
tp1029
aa(lp1030
S'3 * 7 - 5'
p1031
a(I11
I00
tp1032
aa(lp1033
S'3 * 7 - 6'
p1034
a(I13
I00
tp1035
aa(lp1036
S'3 * 7 - 7'
p1037
a(I14
I01
tp1038
aa(lp1039
S'3 * 7 - 8'
p1040
a(I13
I01
tp1041
aa(lp1042
S'3 * 7 - 9'
p1043
a(I12
I01
tp1044
aa(lp1045
S'3 * 8 + 1'
p1046
a(I25
I01
tp1047
aa(lp1048
S'3 * 8 + 2'
p1049
a(I24
I00
tp1050
aa(lp1051
S'3 * 8 + 3'
p1052
a(I27
I01
tp1053
aa(lp1054
S'3 * 8 + 4'
p1055
a(I26
I00
tp1056
aa(lp1057
S'3 * 8 + 5'
p1058
a(I29
I01
tp1059
aa(lp1060
S'3 * 8 + 6'
p1061
a(I27
I00
tp1062
aa(lp1063
S'3 * 8 + 7'
p1064
a(I31
I01
tp1065
aa(lp1066
S'3 * 8 + 8'
p1067
a(I29
I00
tp1068
aa(lp1069
S'3 * 8 + 9'
p1070
a(I33
I01
tp1071
aa(lp1072
S'3 * 8 - 1'
p1073
a(I23
I01
tp1074
aa(lp1075
S'3 * 8 - 2'
p1076
a(I17
I00
tp1077
aa(lp1078
S'3 * 8 - 3'
p1079
a(I21
I01
tp1080
aa(lp1081
S'3 * 8 - 4'
p1082
a(I20
I01
tp1083
aa(lp1084
S'3 * 8 - 5'
p1085
a(I19
I01
tp1086
aa(lp1087
S'3 * 8 - 6'
p1088
a(I16
I00
tp1089
aa(lp1090
S'3 * 8 - 7'
p1091
a(I17
I01
tp1092
aa(lp1093
S'3 * 8 - 8'
p1094
a(I16
I01
tp1095
aa(lp1096
S'3 * 8 - 9'
p1097
a(I13
I00
tp1098
aa(lp1099
S'3 * 9 + 1'
p1100
a(I27
I00
tp1101
aa(lp1102
S'3 * 9 + 2'
p1103
a(I29
I01
tp1104
aa(lp1105
S'3 * 9 + 3'
p1106
a(I28
I00
tp1107
aa(lp1108
S'3 * 9 + 4'
p1109
a(I29
I00
tp1110
aa(lp1111
S'3 * 9 + 5'
p1112
a(I29
I00
tp1113
aa(lp1114
S'3 * 9 + 6'
p1115
a(I29
I00
tp1116
aa(lp1117
S'3 * 9 + 7'
p1118
a(I32
I00
tp1119
aa(lp1120
S'3 * 9 + 8'
p1121
a(I35
I01
tp1122
aa(lp1123
S'3 * 9 + 9'
p1124
a(I31
I00
tp1125
aa(lp1126
S'3 * 9 - 1'
p1127
a(I26
I01
tp1128
aa(lp1129
S'3 * 9 - 2'
p1130
a(I24
I00
tp1131
aa(lp1132
S'3 * 9 - 3'
p1133
a(I24
I01
tp1134
aa(lp1135
S'3 * 9 - 4'
p1136
a(I18
I00
tp1137
aa(lp1138
S'3 * 9 - 5'
p1139
a(I20
I00
tp1140
aa(lp1141
S'3 * 9 - 6'
p1142
a(I21
I01
tp1143
aa(lp1144
S'3 * 9 - 7'
p1145
a(I20
I01
tp1146
aa(lp1147
S'3 * 9 - 8'
p1148
a(I19
I01
tp1149
aa(lp1150
S'3 * 9 - 9'
p1151
a(I14
I00
tp1152
aa(lp1153
S'4 * 1 + 1'
p1154
a(I3
I00
tp1155
aa(lp1156
S'4 * 1 + 2'
p1157
a(I6
I01
tp1158
aa(lp1159
S'4 * 1 + 3'
p1160
a(I4
I00
tp1161
aa(lp1162
S'4 * 1 + 4'
p1163
a(I8
I01
tp1164
aa(lp1165
S'4 * 1 + 5'
p1166
a(I9
I01
tp1167
aa(lp1168
S'4 * 1 + 6'
p1169
a(I9
I00
tp1170
aa(lp1171
S'4 * 1 + 7'
p1172
a(I7
I00
tp1173
aa(lp1174
S'4 * 1 + 8'
p1175
a(I10
I00
tp1176
aa(lp1177
S'4 * 1 + 9'
p1178
a(I13
I01
tp1179
aa(lp1180
S'4 * 1 - 1'
p1181
a(I3
I01
tp1182
aa(lp1183
S'4 * 1 - 2'
p1184
a(I2
I01
tp1185
aa(lp1186
S'4 * 1 - 3'
p1187
a(I1
I01
tp1188
aa(lp1189
S'4 * 1 - 4'
p1190
a(I1
I00
tp1191
aa(lp1192
S'4 * 2 + 1'
p1193
a(I9
I01
tp1194
aa(lp1195
S'4 * 2 + 2'
p1196
a(I7
I00
tp1197
aa(lp1198
S'4 * 2 + 3'
p1199
a(I10
I00
tp1200
aa(lp1201
S'4 * 2 + 4'
p1202
a(I9
I00
tp1203
aa(lp1204
S'4 * 2 + 5'
p1205
a(I13
I01
tp1206
aa(lp1207
S'4 * 2 + 6'
p1208
a(I11
I00
tp1209
aa(lp1210
S'4 * 2 + 7'
p1211
a(I14
I00
tp1212
aa(lp1213
S'4 * 2 + 8'
p1214
a(I11
I00
tp1215
aa(lp1216
S'4 * 2 + 9'
p1217
a(I15
I00
tp1218
aa(lp1219
S'4 * 2 - 1'
p1220
a(I7
I01
tp1221
aa(lp1222
S'4 * 2 - 2'
p1223
a(I3
I00
tp1224
aa(lp1225
S'4 * 2 - 3'
p1226
a(I5
I01
tp1227
aa(lp1228
S'4 * 2 - 4'
p1229
a(I4
I01
tp1230
aa(lp1231
S'4 * 2 - 5'
p1232
a(I3
I01
tp1233
aa(lp1234
S'4 * 2 - 6'
p1235
a(I2
I01
tp1236
aa(lp1237
S'4 * 2 - 7'
p1238
a(I1
I01
tp1239
aa(lp1240
S'4 * 2 - 8'
p1241
a(I1
I00
tp1242
aa(lp1243
S'4 * 3 + 1'
p1244
a(I11
I00
tp1245
aa(lp1246
S'4 * 3 + 2'
p1247
a(I12
I00
tp1248
aa(lp1249
S'4 * 3 + 3'
p1250
a(I15
I01
tp1251
aa(lp1252
S'4 * 3 + 4'
p1253
a(I16
I01
tp1254
aa(lp1255
S'4 * 3 + 5'
p1256
a(I17
I01
tp1257
aa(lp1258
S'4 * 3 + 6'
p1259
a(I18
I01
tp1260
aa(lp1261
S'4 * 3 + 7'
p1262
a(I19
I01
tp1263
aa(lp1264
S'4 * 3 + 8'
p1265
a(I20
I01
tp1266
aa(lp1267
S'4 * 3 + 9'
p1268
a(I17
I00
tp1269
aa(lp1270
S'4 * 3 - 1'
p1271
a(I6
I00
tp1272
aa(lp1273
S'4 * 3 - 2'
p1274
a(I6
I00
tp1275
aa(lp1276
S'4 * 3 - 3'
p1277
a(I8
I00
tp1278
aa(lp1279
S'4 * 3 - 4'
p1280
a(I8
I01
tp1281
aa(lp1282
S'4 * 3 - 5'
p1283
a(I7
I01
tp1284
aa(lp1285
S'4 * 3 - 6'
p1286
a(I1
I00
tp1287
aa(lp1288
S'4 * 3 - 7'
p1289
a(I5
I01
tp1290
aa(lp1291
S'4 * 3 - 8'
p1292
a(I4
I01
tp1293
aa(lp1294
S'4 * 3 - 9'
p1295
a(I3
I01
tp1296
aa(lp1297
S'4 * 5 + 1'
p1298
a(I21
I01
tp1299
aa(lp1300
S'4 * 5 + 2'
p1301
a(I18
I00
tp1302
aa(lp1303
S'4 * 5 + 3'
p1304
a(I23
I01
tp1305
aa(lp1306
S'4 * 5 + 4'
p1307
a(I24
I01
tp1308
aa(lp1309
S'4 * 5 + 5'
p1310
a(I21
I00
tp1311
aa(lp1312
S'4 * 5 + 6'
p1313
a(I26
I01
tp1314
aa(lp1315
S'4 * 5 + 7'
p1316
a(I26
I00
tp1317
aa(lp1318
S'4 * 5 + 8'
p1319
a(I27
I00
tp1320
aa(lp1321
S'4 * 5 + 9'
p1322
a(I24
I00
tp1323
aa(lp1324
S'4 * 5 - 1'
p1325
a(I17
I00
tp1326
aa(lp1327
S'4 * 5 - 2'
p1328
a(I18
I01
tp1329
aa(lp1330
S'4 * 5 - 3'
p1331
a(I14
I00
tp1332
aa(lp1333
S'4 * 5 - 4'
p1334
a(I11
I00
tp1335
aa(lp1336
S'4 * 5 - 5'
p1337
a(I15
I01
tp1338
aa(lp1339
S'4 * 5 - 6'
p1340
a(I10
I00
tp1341
aa(lp1342
S'4 * 5 - 7'
p1343
a(I11
I00
tp1344
aa(lp1345
S'4 * 5 - 8'
p1346
a(I12
I01
tp1347
aa(lp1348
S'4 * 5 - 9'
p1349
a(I6
I00
tp1350
aa(lp1351
S'4 * 6 + 1'
p1352
a(I25
I01
tp1353
aa(lp1354
S'4 * 6 + 2'
p1355
a(I24
I00
tp1356
aa(lp1357
S'4 * 6 + 3'
p1358
a(I27
I01
tp1359
aa(lp1360
S'4 * 6 + 4'
p1361
a(I24
I00
tp1362
aa(lp1363
S'4 * 6 + 5'
p1364
a(I26
I00
tp1365
aa(lp1366
S'4 * 6 + 6'
p1367
a(I30
I01
tp1368
aa(lp1369
S'4 * 6 + 7'
p1370
a(I31
I01
tp1371
aa(lp1372
S'4 * 6 + 8'
p1373
a(I31
I00
tp1374
aa(lp1375
S'4 * 6 + 9'
p1376
a(I31
I00
tp1377
aa(lp1378
S'4 * 6 - 1'
p1379
a(I21
I00
tp1380
aa(lp1381
S'4 * 6 - 2'
p1382
a(I19
I00
tp1383
aa(lp1384
S'4 * 6 - 3'
p1385
a(I21
I01
tp1386
aa(lp1387
S'4 * 6 - 4'
p1388
a(I18
I00
tp1389
aa(lp1390
S'4 * 6 - 5'
p1391
a(I14
I00
tp1392
aa(lp1393
S'4 * 6 - 6'
p1394
a(I18
I01
tp1395
aa(lp1396
S'4 * 6 - 7'
p1397
a(I14
I00
tp1398
aa(lp1399
S'4 * 6 - 8'
p1400
a(I16
I01
tp1401
aa(lp1402
S'4 * 6 - 9'
p1403
a(I14
I00
tp1404
aa(lp1405
S'4 * 7 + 1'
p1406
a(I29
I01
tp1407
aa(lp1408
S'4 * 7 + 2'
p1409
a(I26
I00
tp1410
aa(lp1411
S'4 * 7 + 3'
p1412
a(I31
I01
tp1413
aa(lp1414
S'4 * 7 + 4'
p1415
a(I32
I01
tp1416
aa(lp1417
S'4 * 7 + 5'
p1418
a(I33
I01
tp1419
aa(lp1420
S'4 * 7 + 6'
p1421
a(I29
I00
tp1422
aa(lp1423
S'4 * 7 + 7'
p1424
a(I35
I01
tp1425
aa(lp1426
S'4 * 7 + 8'
p1427
a(I36
I01
tp1428
aa(lp1429
S'4 * 7 + 9'
p1430
a(I33
I00
tp1431
aa(lp1432
S'4 * 7 - 1'
p1433
a(I27
I01
tp1434
aa(lp1435
S'4 * 7 - 2'
p1436
a(I22
I00
tp1437
aa(lp1438
S'4 * 7 - 3'
p1439
a(I21
I00
tp1440
aa(lp1441
S'4 * 7 - 4'
p1442
a(I24
I01
tp1443
aa(lp1444
S'4 * 7 - 5'
p1445
a(I21
I00
tp1446
aa(lp1447
S'4 * 7 - 6'
p1448
a(I21
I00
tp1449
aa(lp1450
S'4 * 7 - 7'
p1451
a(I19
I00
tp1452
aa(lp1453
S'4 * 7 - 8'
p1454
a(I20
I01
tp1455
aa(lp1456
S'4 * 7 - 9'
p1457
a(I19
I01
tp1458
aa(lp1459
S'4 * 8 + 1'
p1460
a(I32
I00
tp1461
aa(lp1462
S'4 * 8 + 2'
p1463
a(I31
I00
tp1464
aa(lp1465
S'4 * 8 + 3'
p1466
a(I34
I00
tp1467
aa(lp1468
S'4 * 8 + 4'
p1469
a(I32
I00
tp1470
aa(lp1471
S'4 * 8 + 5'
p1472
a(I37
I01
tp1473
aa(lp1474
S'4 * 8 + 6'
p1475
a(I38
I01
tp1476
aa(lp1477
S'4 * 8 + 7'
p1478
a(I39
I01
tp1479
aa(lp1480
S'4 * 8 + 8'
p1481
a(I35
I00
tp1482
aa(lp1483
S'4 * 8 + 9'
p1484
a(I41
I01
tp1485
aa(lp1486
S'4 * 8 - 1'
p1487
a(I31
I01
tp1488
aa(lp1489
S'4 * 8 - 2'
p1490
a(I30
I01
tp1491
aa(lp1492
S'4 * 8 - 3'
p1493
a(I29
I01
tp1494
aa(lp1495
S'4 * 8 - 4'
p1496
a(I27
I00
tp1497
aa(lp1498
S'4 * 8 - 5'
p1499
a(I27
I01
tp1500
aa(lp1501
S'4 * 8 - 6'
p1502
a(I26
I01
tp1503
aa(lp1504
S'4 * 8 - 7'
p1505
a(I20
I00
tp1506
aa(lp1507
S'4 * 8 - 8'
p1508
a(I20
I00
tp1509
aa(lp1510
S'4 * 8 - 9'
p1511
a(I20
I00
tp1512
aa(lp1513
S'4 * 9 + 1'
p1514
a(I37
I01
tp1515
aa(lp1516
S'4 * 9 + 2'
p1517
a(I35
I00
tp1518
aa(lp1519
S'4 * 9 + 3'
p1520
a(I38
I00
tp1521
aa(lp1522
S'4 * 9 + 4'
p1523
a(I36
I00
tp1524
aa(lp1525
S'4 * 9 + 5'
p1526
a(I36
I00
tp1527
aa(lp1528
S'4 * 9 + 6'
p1529
a(I42
I01
tp1530
aa(lp1531
S'4 * 9 + 7'
p1532
a(I43
I01
tp1533
aa(lp1534
S'4 * 9 + 8'
p1535
a(I44
I01
tp1536
aa(lp1537
S'4 * 9 + 9'
p1538
a(I40
I00
tp1539
aa(lp1540
S'4 * 9 - 1'
p1541
a(I35
I01
tp1542
aa(lp1543
S'4 * 9 - 2'
p1544
a(I34
I01
tp1545
aa(lp1546
S'4 * 9 - 3'
p1547
a(I32
I00
tp1548
aa(lp1549
S'4 * 9 - 4'
p1550
a(I32
I01
tp1551
aa(lp1552
S'4 * 9 - 5'
p1553
a(I31
I01
tp1554
aa(lp1555
S'4 * 9 - 6'
p1556
a(I29
I00
tp1557
aa(lp1558
S'4 * 9 - 7'
p1559
a(I29
I01
tp1560
aa(lp1561
S'4 * 9 - 8'
p1562
a(I26
I00
tp1563
aa(lp1564
S'4 * 9 - 9'
p1565
a(I25
I00
tp1566
aa(lp1567
S'5 * 1 + 1'
p1568
a(I6
I01
tp1569
aa(lp1570
S'5 * 1 + 2'
p1571
a(I2
I00
tp1572
aa(lp1573
S'5 * 1 + 3'
p1574
a(I8
I01
tp1575
aa(lp1576
S'5 * 1 + 4'
p1577
a(I5
I00
tp1578
aa(lp1579
S'5 * 1 + 5'
p1580
a(I6
I00
tp1581
aa(lp1582
S'5 * 1 + 6'
p1583
a(I11
I01
tp1584
aa(lp1585
S'5 * 1 + 7'
p1586
a(I12
I01
tp1587
aa(lp1588
S'5 * 1 + 8'
p1589
a(I13
I01
tp1590
aa(lp1591
S'5 * 1 + 9'
p1592
a(I10
I00
tp1593
aa(lp1594
S'5 * 1 - 1'
p1595
a(I1
I00
tp1596
aa(lp1597
S'5 * 1 - 2'
p1598
a(I3
I01
tp1599
aa(lp1600
S'5 * 1 - 3'
p1601
a(I0
I00
tp1602
aa(lp1603
S'5 * 1 - 4'
p1604
a(I1
I01
tp1605
aa(lp1606
S'5 * 1 - 5'
p1607
a(I0
I01
tp1608
aa(lp1609
S'5 * 2 + 1'
p1610
a(I9
I00
tp1611
aa(lp1612
S'5 * 2 + 2'
p1613
a(I12
I01
tp1614
aa(lp1615
S'5 * 2 + 3'
p1616
a(I13
I01
tp1617
aa(lp1618
S'5 * 2 + 4'
p1619
a(I14
I01
tp1620
aa(lp1621
S'5 * 2 + 5'
p1622
a(I15
I01
tp1623
aa(lp1624
S'5 * 2 + 6'
p1625
a(I16
I01
tp1626
aa(lp1627
S'5 * 2 + 7'
p1628
a(I17
I01
tp1629
aa(lp1630
S'5 * 2 + 8'
p1631
a(I18
I01
tp1632
aa(lp1633
S'5 * 2 + 9'
p1634
a(I14
I00
tp1635
aa(lp1636
S'5 * 2 - 1'
p1637
a(I4
I00
tp1638
aa(lp1639
S'5 * 2 - 2'
p1640
a(I4
I00
tp1641
aa(lp1642
S'5 * 2 - 3'
p1643
a(I7
I01
tp1644
aa(lp1645
S'5 * 2 - 4'
p1646
a(I5
I00
tp1647
aa(lp1648
S'5 * 2 - 5'
p1649
a(I5
I01
tp1650
aa(lp1651
S'5 * 2 - 6'
p1652
a(I4
I01
tp1653
aa(lp1654
S'5 * 2 - 7'
p1655
a(I3
I01
tp1656
aa(lp1657
S'5 * 2 - 8'
p1658
a(I2
I01
tp1659
aa(lp1660
S'5 * 2 - 9'
p1661
a(I3
I00
tp1662
aa(lp1663
S'5 * 3 + 1'
p1664
a(I12
I00
tp1665
aa(lp1666
S'5 * 3 + 2'
p1667
a(I13
I00
tp1668
aa(lp1669
S'5 * 3 + 3'
p1670
a(I18
I01
tp1671
aa(lp1672
S'5 * 3 + 4'
p1673
a(I19
I01
tp1674
aa(lp1675
S'5 * 3 + 5'
p1676
a(I20
I01
tp1677
aa(lp1678
S'5 * 3 + 6'
p1679
a(I21
I01
tp1680
aa(lp1681
S'5 * 3 + 7'
p1682
a(I20
I00
tp1683
aa(lp1684
S'5 * 3 + 8'
p1685
a(I23
I01
tp1686
aa(lp1687
S'5 * 3 + 9'
p1688
a(I24
I01
tp1689
aa(lp1690
S'5 * 3 - 1'
p1691
a(I14
I01
tp1692
aa(lp1693
S'5 * 3 - 2'
p1694
a(I13
I01
tp1695
aa(lp1696
S'5 * 3 - 3'
p1697
a(I12
I01
tp1698
aa(lp1699
S'5 * 3 - 4'
p1700
a(I11
I01
tp1701
aa(lp1702
S'5 * 3 - 5'
p1703
a(I10
I01
tp1704
aa(lp1705
S'5 * 3 - 6'
p1706
a(I9
I01
tp1707
aa(lp1708
S'5 * 3 - 7'
p1709
a(I3
I00
tp1710
aa(lp1711
S'5 * 3 - 8'
p1712
a(I6
I00
tp1713
aa(lp1714
S'5 * 3 - 9'
p1715
a(I2
I00
tp1716
aa(lp1717
S'5 * 4 + 1'
p1718
a(I20
I00
tp1719
aa(lp1720
S'5 * 4 + 2'
p1721
a(I22
I01
tp1722
aa(lp1723
S'5 * 4 + 3'
p1724
a(I22
I00
tp1725
aa(lp1726
S'5 * 4 + 4'
p1727
a(I24
I01
tp1728
aa(lp1729
S'5 * 4 + 5'
p1730
a(I25
I01
tp1731
aa(lp1732
S'5 * 4 + 6'
p1733
a(I25
I00
tp1734
aa(lp1735
S'5 * 4 + 7'
p1736
a(I22
I00
tp1737
aa(lp1738
S'5 * 4 + 8'
p1739
a(I23
I00
tp1740
aa(lp1741
S'5 * 4 + 9'
p1742
a(I25
I00
tp1743
aa(lp1744
S'5 * 4 - 1'
p1745
a(I19
I01
tp1746
aa(lp1747
S'5 * 4 - 2'
p1748
a(I13
I00
tp1749
aa(lp1750
S'5 * 4 - 3'
p1751
a(I17
I01
tp1752
aa(lp1753
S'5 * 4 - 4'
p1754
a(I11
I00
tp1755
aa(lp1756
S'5 * 4 - 5'
p1757
a(I10
I00
tp1758
aa(lp1759
S'5 * 4 - 6'
p1760
a(I10
I00
tp1761
aa(lp1762
S'5 * 4 - 7'
p1763
a(I11
I00
tp1764
aa(lp1765
S'5 * 4 - 8'
p1766
a(I10
I00
tp1767
aa(lp1768
S'5 * 4 - 9'
p1769
a(I11
I01
tp1770
aa(lp1771
S'5 * 6 + 1'
p1772
a(I31
I01
tp1773
aa(lp1774
S'5 * 6 + 2'
p1775
a(I32
I01
tp1776
aa(lp1777
S'5 * 6 + 3'
p1778
a(I31
I00
tp1779
aa(lp1780
S'5 * 6 + 4'
p1781
a(I34
I01
tp1782
aa(lp1783
S'5 * 6 + 5'
p1784
a(I35
I01
tp1785
aa(lp1786
S'5 * 6 + 6'
p1787
a(I36
I01
tp1788
aa(lp1789
S'5 * 6 + 7'
p1790
a(I32
I00
tp1791
aa(lp1792
S'5 * 6 + 8'
p1793
a(I35
I00
tp1794
aa(lp1795
S'5 * 6 + 9'
p1796
a(I39
I01
tp1797
aa(lp1798
S'5 * 6 - 1'
p1799
a(I29
I01
tp1800
aa(lp1801
S'5 * 6 - 2'
p1802
a(I26
I00
tp1803
aa(lp1804
S'5 * 6 - 3'
p1805
a(I27
I01
tp1806
aa(lp1807
S'5 * 6 - 4'
p1808
a(I26
I01
tp1809
aa(lp1810
S'5 * 6 - 5'
p1811
a(I23
I00
tp1812
aa(lp1813
S'5 * 6 - 6'
p1814
a(I21
I00
tp1815
aa(lp1816
S'5 * 6 - 7'
p1817
a(I18
I00
tp1818
aa(lp1819
S'5 * 6 - 8'
p1820
a(I18
I00
tp1821
aa(lp1822
S'5 * 6 - 9'
p1823
a(I20
I00
tp1824
aa(lp1825
S'5 * 7 + 1'
p1826
a(I36
I01
tp1827
aa(lp1828
S'5 * 7 + 2'
p1829
a(I32
I00
tp1830
aa(lp1831
S'5 * 7 + 3'
p1832
a(I38
I01
tp1833
aa(lp1834
S'5 * 7 + 4'
p1835
a(I39
I01
tp1836
aa(lp1837
S'5 * 7 + 5'
p1838
a(I40
I01
tp1839
aa(lp1840
S'5 * 7 + 6'
p1841
a(I41
I01
tp1842
aa(lp1843
S'5 * 7 + 7'
p1844
a(I42
I01
tp1845
aa(lp1846
S'5 * 7 + 8'
p1847
a(I43
I01
tp1848
aa(lp1849
S'5 * 7 + 9'
p1850
a(I43
I00
tp1851
aa(lp1852
S'5 * 7 - 1'
p1853
a(I34
I01
tp1854
aa(lp1855
S'5 * 7 - 2'
p1856
a(I33
I01
tp1857
aa(lp1858
S'5 * 7 - 3'
p1859
a(I28
I00
tp1860
aa(lp1861
S'5 * 7 - 4'
p1862
a(I31
I01
tp1863
aa(lp1864
S'5 * 7 - 5'
p1865
a(I30
I01
tp1866
aa(lp1867
S'5 * 7 - 6'
p1868
a(I24
I00
tp1869
aa(lp1870
S'5 * 7 - 7'
p1871
a(I28
I01
tp1872
aa(lp1873
S'5 * 7 - 8'
p1874
a(I27
I01
tp1875
aa(lp1876
S'5 * 7 - 9'
p1877
a(I26
I01
tp1878
aa(lp1879
S'5 * 8 + 1'
p1880
a(I41
I01
tp1881
aa(lp1882
S'5 * 8 + 2'
p1883
a(I39
I00
tp1884
aa(lp1885
S'5 * 8 + 3'
p1886
a(I43
I01
tp1887
aa(lp1888
S'5 * 8 + 4'
p1889
a(I40
I00
tp1890
aa(lp1891
S'5 * 8 + 5'
p1892
a(I45
I01
tp1893
aa(lp1894
S'5 * 8 + 6'
p1895
a(I46
I01
tp1896
aa(lp1897
S'5 * 8 + 7'
p1898
a(I47
I01
tp1899
aa(lp1900
S'5 * 8 + 8'
p1901
a(I48
I01
tp1902
aa(lp1903
S'5 * 8 + 9'
p1904
a(I44
I00
tp1905
aa(lp1906
S'5 * 8 - 1'
p1907
a(I37
I00
tp1908
aa(lp1909
S'5 * 8 - 2'
p1910
a(I34
I00
tp1911
aa(lp1912
S'5 * 8 - 3'
p1913
a(I33
I00
tp1914
aa(lp1915
S'5 * 8 - 4'
p1916
a(I36
I01
tp1917
aa(lp1918
S'5 * 8 - 5'
p1919
a(I30
I00
tp1920
aa(lp1921
S'5 * 8 - 6'
p1922
a(I32
I00
tp1923
aa(lp1924
S'5 * 8 - 7'
p1925
a(I28
I00
tp1926
aa(lp1927
S'5 * 8 - 8'
p1928
a(I32
I01
tp1929
aa(lp1930
S'5 * 8 - 9'
p1931
a(I28
I00
tp1932
aa(lp1933
S'5 * 9 + 1'
p1934
a(I46
I01
tp1935
aa(lp1936
S'5 * 9 + 2'
p1937
a(I47
I01
tp1938
aa(lp1939
S'5 * 9 + 3'
p1940
a(I44
I00
tp1941
aa(lp1942
S'5 * 9 + 4'
p1943
a(I46
I00
tp1944
aa(lp1945
S'5 * 9 + 5'
p1946
a(I49
I00
tp1947
aa(lp1948
S'5 * 9 + 6'
p1949
a(I46
I00
tp1950
aa(lp1951
S'5 * 9 + 7'
p1952
a(I51
I00
tp1953
aa(lp1954
S'5 * 9 + 8'
p1955
a(I49
I00
tp1956
aa(lp1957
S'5 * 9 + 9'
p1958
a(I51
I00
tp1959
aa(lp1960
S'5 * 9 - 1'
p1961
a(I44
I01
tp1962
aa(lp1963
S'5 * 9 - 2'
p1964
a(I43
I01
tp1965
aa(lp1966
S'5 * 9 - 3'
p1967
a(I42
I01
tp1968
aa(lp1969
S'5 * 9 - 4'
p1970
a(I37
I00
tp1971
aa(lp1972
S'5 * 9 - 5'
p1973
a(I40
I01
tp1974
aa(lp1975
S'5 * 9 - 6'
p1976
a(I37
I00
tp1977
aa(lp1978
S'5 * 9 - 7'
p1979
a(I34
I00
tp1980
aa(lp1981
S'5 * 9 - 8'
p1982
a(I37
I01
tp1983
aa(lp1984
S'5 * 9 - 9'
p1985
a(I36
I01
tp1986
aa(lp1987
S'6 * 1 + 1'
p1988
a(I2
I00
tp1989
aa(lp1990
S'6 * 1 + 2'
p1991
a(I5
I00
tp1992
aa(lp1993
S'6 * 1 + 3'
p1994
a(I9
I01
tp1995
aa(lp1996
S'6 * 1 + 4'
p1997
a(I9
I00
tp1998
aa(lp1999
S'6 * 1 + 5'
p2000
a(I11
I01
tp2001
aa(lp2002
S'6 * 1 + 6'
p2003
a(I8
I00
tp2004
aa(lp2005
S'6 * 1 + 7'
p2006
a(I13
I01
tp2007
aa(lp2008
S'6 * 1 + 8'
p2009
a(I14
I01
tp2010
aa(lp2011
S'6 * 1 + 9'
p2012
a(I10
I00
tp2013
aa(lp2014
S'6 * 1 - 1'
p2015
a(I0
I00
tp2016
aa(lp2017
S'6 * 1 - 2'
p2018
a(I0
I00
tp2019
aa(lp2020
S'6 * 1 - 3'
p2021
a(I5
I00
tp2022
aa(lp2023
S'6 * 1 - 4'
p2024
a(I1
I00
tp2025
aa(lp2026
S'6 * 1 - 5'
p2027
a(I1
I01
tp2028
aa(lp2029
S'6 * 1 - 6'
p2030
a(I2
I00
tp2031
aa(lp2032
S'6 * 2 + 1'
p2033
a(I13
I01
tp2034
aa(lp2035
S'6 * 2 + 2'
p2036
a(I14
I01
tp2037
aa(lp2038
S'6 * 2 + 3'
p2039
a(I15
I01
tp2040
aa(lp2041
S'6 * 2 + 4'
p2042
a(I16
I01
tp2043
aa(lp2044
S'6 * 2 + 5'
p2045
a(I17
I01
tp2046
aa(lp2047
S'6 * 2 + 6'
p2048
a(I15
I00
tp2049
aa(lp2050
S'6 * 2 + 7'
p2051
a(I16
I00
tp2052
aa(lp2053
S'6 * 2 + 8'
p2054
a(I20
I01
tp2055
aa(lp2056
S'6 * 2 + 9'
p2057
a(I16
I00
tp2058
aa(lp2059
S'6 * 2 - 1'
p2060
a(I11
I01
tp2061
aa(lp2062
S'6 * 2 - 2'
p2063
a(I6
I00
tp2064
aa(lp2065
S'6 * 2 - 3'
p2066
a(I9
I01
tp2067
aa(lp2068
S'6 * 2 - 4'
p2069
a(I8
I01
tp2070
aa(lp2071
S'6 * 2 - 5'
p2072
a(I7
I01
tp2073
aa(lp2074
S'6 * 2 - 6'
p2075
a(I4
I00
tp2076
aa(lp2077
S'6 * 2 - 7'
p2078
a(I4
I00
tp2079
aa(lp2080
S'6 * 2 - 8'
p2081
a(I4
I01
tp2082
aa(lp2083
S'6 * 2 - 9'
p2084
a(I3
I01
tp2085
aa(lp2086
S'6 * 3 + 1'
p2087
a(I19
I01
tp2088
aa(lp2089
S'6 * 3 + 2'
p2090
a(I20
I01
tp2091
aa(lp2092
S'6 * 3 + 3'
p2093
a(I17
I00
tp2094
aa(lp2095
S'6 * 3 + 4'
p2096
a(I22
I01
tp2097
aa(lp2098
S'6 * 3 + 5'
p2099
a(I18
I00
tp2100
aa(lp2101
S'6 * 3 + 6'
p2102
a(I24
I01
tp2103
aa(lp2104
S'6 * 3 + 7'
p2105
a(I23
I00
tp2106
aa(lp2107
S'6 * 3 + 8'
p2108
a(I23
I00
tp2109
aa(lp2110
S'6 * 3 + 9'
p2111
a(I27
I01
tp2112
aa(lp2113
S'6 * 3 - 1'
p2114
a(I13
I00
tp2115
aa(lp2116
S'6 * 3 - 2'
p2117
a(I16
I01
tp2118
aa(lp2119
S'6 * 3 - 3'
p2120
a(I14
I00
tp2121
aa(lp2122
S'6 * 3 - 4'
p2123
a(I14
I01
tp2124
aa(lp2125
S'6 * 3 - 5'
p2126
a(I13
I01
tp2127
aa(lp2128
S'6 * 3 - 6'
p2129
a(I11
I00
tp2130
aa(lp2131
S'6 * 3 - 7'
p2132
a(I11
I01
tp2133
aa(lp2134
S'6 * 3 - 8'
p2135
a(I6
I00
tp2136
aa(lp2137
S'6 * 3 - 9'
p2138
a(I4
I00
tp2139
aa(lp2140
S'6 * 4 + 1'
p2141
a(I20
I00
tp2142
aa(lp2143
S'6 * 4 + 2'
p2144
a(I24
I00
tp2145
aa(lp2146
S'6 * 4 + 3'
p2147
a(I27
I01
tp2148
aa(lp2149
S'6 * 4 + 4'
p2150
a(I28
I01
tp2151
aa(lp2152
S'6 * 4 + 5'
p2153
a(I29
I01
tp2154
aa(lp2155
S'6 * 4 + 6'
p2156
a(I29
I00
tp2157
aa(lp2158
S'6 * 4 + 7'
p2159
a(I29
I00
tp2160
aa(lp2161
S'6 * 4 + 8'
p2162
a(I28
I00
tp2163
aa(lp2164
S'6 * 4 + 9'
p2165
a(I33
I01
tp2166
aa(lp2167
S'6 * 4 - 1'
p2168
a(I23
I01
tp2169
aa(lp2170
S'6 * 4 - 2'
p2171
a(I22
I01
tp2172
aa(lp2173
S'6 * 4 - 3'
p2174
a(I21
I01
tp2175
aa(lp2176
S'6 * 4 - 4'
p2177
a(I20
I01
tp2178
aa(lp2179
S'6 * 4 - 5'
p2180
a(I19
I01
tp2181
aa(lp2182
S'6 * 4 - 6'
p2183
a(I18
I01
tp2184
aa(lp2185
S'6 * 4 - 7'
p2186
a(I12
I00
tp2187
aa(lp2188
S'6 * 4 - 8'
p2189
a(I13
I00
tp2190
aa(lp2191
S'6 * 4 - 9'
p2192
a(I11
I00
tp2193
aa(lp2194
S'6 * 5 + 1'
p2195
a(I31
I01
tp2196
aa(lp2197
S'6 * 5 + 2'
p2198
a(I32
I01
tp2199
aa(lp2200
S'6 * 5 + 3'
p2201
a(I30
I00
tp2202
aa(lp2203
S'6 * 5 + 4'
p2204
a(I34
I01
tp2205
aa(lp2206
S'6 * 5 + 5'
p2207
a(I30
I00
tp2208
aa(lp2209
S'6 * 5 + 6'
p2210
a(I36
I01
tp2211
aa(lp2212
S'6 * 5 + 7'
p2213
a(I33
I00
tp2214
aa(lp2215
S'6 * 5 + 8'
p2216
a(I38
I01
tp2217
aa(lp2218
S'6 * 5 + 9'
p2219
a(I38
I00
tp2220
aa(lp2221
S'6 * 5 - 1'
p2222
a(I25
I00
tp2223
aa(lp2224
S'6 * 5 - 2'
p2225
a(I26
I00
tp2226
aa(lp2227
S'6 * 5 - 3'
p2228
a(I27
I01
tp2229
aa(lp2230
S'6 * 5 - 4'
p2231
a(I26
I01
tp2232
aa(lp2233
S'6 * 5 - 5'
p2234
a(I25
I01
tp2235
aa(lp2236
S'6 * 5 - 6'
p2237
a(I19
I00
tp2238
aa(lp2239
S'6 * 5 - 7'
p2240
a(I23
I01
tp2241
aa(lp2242
S'6 * 5 - 8'
p2243
a(I22
I01
tp2244
aa(lp2245
S'6 * 5 - 9'
p2246
a(I18
I00
tp2247
aa(lp2248
S'6 * 7 + 1'
p2249
a(I43
I01
tp2250
aa(lp2251
S'6 * 7 + 2'
p2252
a(I39
I00
tp2253
aa(lp2254
S'6 * 7 + 3'
p2255
a(I40
I00
tp2256
aa(lp2257
S'6 * 7 + 4'
p2258
a(I45
I00
tp2259
aa(lp2260
S'6 * 7 + 5'
p2261
a(I46
I00
tp2262
aa(lp2263
S'6 * 7 + 6'
p2264
a(I47
I00
tp2265
aa(lp2266
S'6 * 7 + 7'
p2267
a(I46
I00
tp2268
aa(lp2269
S'6 * 7 + 8'
p2270
a(I50
I01
tp2271
aa(lp2272
S'6 * 7 + 9'
p2273
a(I51
I01
tp2274
aa(lp2275
S'6 * 7 - 1'
p2276
a(I41
I01
tp2277
aa(lp2278
S'6 * 7 - 2'
p2279
a(I39
I00
tp2280
aa(lp2281
S'6 * 7 - 3'
p2282
a(I34
I00
tp2283
aa(lp2284
S'6 * 7 - 4'
p2285
a(I36
I00
tp2286
aa(lp2287
S'6 * 7 - 5'
p2288
a(I34
I00
tp2289
aa(lp2290
S'6 * 7 - 6'
p2291
a(I36
I01
tp2292
aa(lp2293
S'6 * 7 - 7'
p2294
a(I35
I01
tp2295
aa(lp2296
S'6 * 7 - 8'
p2297
a(I34
I01
tp2298
aa(lp2299
S'6 * 7 - 9'
p2300
a(I33
I01
tp2301
aa(lp2302
S'6 * 8 + 1'
p2303
a(I49
I01
tp2304
aa(lp2305
S'6 * 8 + 2'
p2306
a(I50
I01
tp2307
aa(lp2308
S'6 * 8 + 3'
p2309
a(I46
I00
tp2310
aa(lp2311
S'6 * 8 + 4'
p2312
a(I52
I01
tp2313
aa(lp2314
S'6 * 8 + 5'
p2315
a(I50
I00
tp2316
aa(lp2317
S'6 * 8 + 6'
p2318
a(I51
I00
tp2319
aa(lp2320
S'6 * 8 + 7'
p2321
a(I50
I00
tp2322
aa(lp2323
S'6 * 8 + 8'
p2324
a(I56
I01
tp2325
aa(lp2326
S'6 * 8 + 9'
p2327
a(I57
I01
tp2328
aa(lp2329
S'6 * 8 - 1'
p2330
a(I47
I01
tp2331
aa(lp2332
S'6 * 8 - 2'
p2333
a(I43
I00
tp2334
aa(lp2335
S'6 * 8 - 3'
p2336
a(I45
I01
tp2337
aa(lp2338
S'6 * 8 - 4'
p2339
a(I40
I00
tp2340
aa(lp2341
S'6 * 8 - 5'
p2342
a(I43
I01
tp2343
aa(lp2344
S'6 * 8 - 6'
p2345
a(I42
I01
tp2346
aa(lp2347
S'6 * 8 - 7'
p2348
a(I41
I01
tp2349
aa(lp2350
S'6 * 8 - 8'
p2351
a(I37
I00
tp2352
aa(lp2353
S'6 * 8 - 9'
p2354
a(I35
I00
tp2355
aa(lp2356
S'6 * 9 + 1'
p2357
a(I53
I00
tp2358
aa(lp2359
S'6 * 9 + 2'
p2360
a(I54
I00
tp2361
aa(lp2362
S'6 * 9 + 3'
p2363
a(I55
I00
tp2364
aa(lp2365
S'6 * 9 + 4'
p2366
a(I58
I01
tp2367
aa(lp2368
S'6 * 9 + 5'
p2369
a(I56
I00
tp2370
aa(lp2371
S'6 * 9 + 6'
p2372
a(I57
I00
tp2373
aa(lp2374
S'6 * 9 + 7'
p2375
a(I60
I00
tp2376
aa(lp2377
S'6 * 9 + 8'
p2378
a(I61
I00
tp2379
aa(lp2380
S'6 * 9 + 9'
p2381
a(I63
I01
tp2382
aa(lp2383
S'6 * 9 - 1'
p2384
a(I51
I00
tp2385
aa(lp2386
S'6 * 9 - 2'
p2387
a(I52
I01
tp2388
aa(lp2389
S'6 * 9 - 3'
p2390
a(I49
I00
tp2391
aa(lp2392
S'6 * 9 - 4'
p2393
a(I50
I01
tp2394
aa(lp2395
S'6 * 9 - 5'
p2396
a(I49
I01
tp2397
aa(lp2398
S'6 * 9 - 6'
p2399
a(I48
I01
tp2400
aa(lp2401
S'6 * 9 - 7'
p2402
a(I47
I01
tp2403
aa(lp2404
S'6 * 9 - 8'
p2405
a(I46
I01
tp2406
aa(lp2407
S'6 * 9 - 9'
p2408
a(I45
I01
tp2409
aa(lp2410
S'7 * 1 + 1'
p2411
a(I5
I00
tp2412
aa(lp2413
S'7 * 1 + 2'
p2414
a(I7
I00
tp2415
aa(lp2416
S'7 * 1 + 3'
p2417
a(I10
I01
tp2418
aa(lp2419
S'7 * 1 + 4'
p2420
a(I8
I00
tp2421
aa(lp2422
S'7 * 1 + 5'
p2423
a(I7
I00
tp2424
aa(lp2425
S'7 * 1 + 6'
p2426
a(I13
I01
tp2427
aa(lp2428
S'7 * 1 + 7'
p2429
a(I14
I01
tp2430
aa(lp2431
S'7 * 1 + 8'
p2432
a(I15
I01
tp2433
aa(lp2434
S'7 * 1 + 9'
p2435
a(I15
I00
tp2436
aa(lp2437
S'7 * 1 - 1'
p2438
a(I4
I00
tp2439
aa(lp2440
S'7 * 1 - 2'
p2441
a(I3
I00
tp2442
aa(lp2443
S'7 * 1 - 3'
p2444
a(I4
I01
tp2445
aa(lp2446
S'7 * 1 - 4'
p2447
a(I7
I00
tp2448
aa(lp2449
S'7 * 1 - 5'
p2450
a(I0
I00
tp2451
aa(lp2452
S'7 * 1 - 6'
p2453
a(I1
I01
tp2454
aa(lp2455
S'7 * 1 - 7'
p2456
a(I0
I01
tp2457
aa(lp2458
S'7 * 2 + 1'
p2459
a(I10
I00
tp2460
aa(lp2461
S'7 * 2 + 2'
p2462
a(I16
I01
tp2463
aa(lp2464
S'7 * 2 + 3'
p2465
a(I17
I01
tp2466
aa(lp2467
S'7 * 2 + 4'
p2468
a(I15
I00
tp2469
aa(lp2470
S'7 * 2 + 5'
p2471
a(I19
I01
tp2472
aa(lp2473
S'7 * 2 + 6'
p2474
a(I18
I00
tp2475
aa(lp2476
S'7 * 2 + 7'
p2477
a(I21
I01
tp2478
aa(lp2479
S'7 * 2 + 8'
p2480
a(I19
I00
tp2481
aa(lp2482
S'7 * 2 + 9'
p2483
a(I22
I00
tp2484
aa(lp2485
S'7 * 2 - 1'
p2486
a(I13
I01
tp2487
aa(lp2488
S'7 * 2 - 2'
p2489
a(I12
I01
tp2490
aa(lp2491
S'7 * 2 - 3'
p2492
a(I11
I01
tp2493
aa(lp2494
S'7 * 2 - 4'
p2495
a(I10
I01
tp2496
aa(lp2497
S'7 * 2 - 5'
p2498
a(I5
I00
tp2499
aa(lp2500
S'7 * 2 - 6'
p2501
a(I4
I00
tp2502
aa(lp2503
S'7 * 2 - 7'
p2504
a(I2
I00
tp2505
aa(lp2506
S'7 * 2 - 8'
p2507
a(I6
I01
tp2508
aa(lp2509
S'7 * 2 - 9'
p2510
a(I5
I01
tp2511
aa(lp2512
S'7 * 3 + 1'
p2513
a(I19
I00
tp2514
aa(lp2515
S'7 * 3 + 2'
p2516
a(I20
I00
tp2517
aa(lp2518
S'7 * 3 + 3'
p2519
a(I23
I00
tp2520
aa(lp2521
S'7 * 3 + 4'
p2522
a(I25
I01
tp2523
aa(lp2524
S'7 * 3 + 5'
p2525
a(I26
I01
tp2526
aa(lp2527
S'7 * 3 + 6'
p2528
a(I23
I00
tp2529
aa(lp2530
S'7 * 3 + 7'
p2531
a(I25
I00
tp2532
aa(lp2533
S'7 * 3 + 8'
p2534
a(I28
I00
tp2535
aa(lp2536
S'7 * 3 + 9'
p2537
a(I30
I01
tp2538
aa(lp2539
S'7 * 3 - 1'
p2540
a(I17
I00
tp2541
aa(lp2542
S'7 * 3 - 2'
p2543
a(I19
I01
tp2544
aa(lp2545
S'7 * 3 - 3'
p2546
a(I18
I01
tp2547
aa(lp2548
S'7 * 3 - 4'
p2549
a(I15
I00
tp2550
aa(lp2551
S'7 * 3 - 5'
p2552
a(I16
I01
tp2553
aa(lp2554
S'7 * 3 - 6'
p2555
a(I15
I01
tp2556
aa(lp2557
S'7 * 3 - 7'
p2558
a(I14
I01
tp2559
aa(lp2560
S'7 * 3 - 8'
p2561
a(I10
I00
tp2562
aa(lp2563
S'7 * 3 - 9'
p2564
a(I9
I00
tp2565
aa(lp2566
S'7 * 4 + 1'
p2567
a(I25
I00
tp2568
aa(lp2569
S'7 * 4 + 2'
p2570
a(I30
I01
tp2571
aa(lp2572
S'7 * 4 + 3'
p2573
a(I30
I00
tp2574
aa(lp2575
S'7 * 4 + 4'
p2576
a(I28
I00
tp2577
aa(lp2578
S'7 * 4 + 5'
p2579
a(I29
I00
tp2580
aa(lp2581
S'7 * 4 + 6'
p2582
a(I32
I00
tp2583
aa(lp2584
S'7 * 4 + 7'
p2585
a(I30
I00
tp2586
aa(lp2587
S'7 * 4 + 8'
p2588
a(I36
I01
tp2589
aa(lp2590
S'7 * 4 + 9'
p2591
a(I37
I01
tp2592
aa(lp2593
S'7 * 4 - 1'
p2594
a(I26
I00
tp2595
aa(lp2596
S'7 * 4 - 2'
p2597
a(I26
I01
tp2598
aa(lp2599
S'7 * 4 - 3'
p2600
a(I25
I01
tp2601
aa(lp2602
S'7 * 4 - 4'
p2603
a(I24
I01
tp2604
aa(lp2605
S'7 * 4 - 5'
p2606
a(I23
I01
tp2607
aa(lp2608
S'7 * 4 - 6'
p2609
a(I19
I00
tp2610
aa(lp2611
S'7 * 4 - 7'
p2612
a(I18
I00
tp2613
aa(lp2614
S'7 * 4 - 8'
p2615
a(I17
I00
tp2616
aa(lp2617
S'7 * 4 - 9'
p2618
a(I19
I01
tp2619
aa(lp2620
S'7 * 5 + 1'
p2621
a(I33
I00
tp2622
aa(lp2623
S'7 * 5 + 2'
p2624
a(I37
I01
tp2625
aa(lp2626
S'7 * 5 + 3'
p2627
a(I34
I00
tp2628
aa(lp2629
S'7 * 5 + 4'
p2630
a(I34
I00
tp2631
aa(lp2632
S'7 * 5 + 5'
p2633
a(I38
I00
tp2634
aa(lp2635
S'7 * 5 + 6'
p2636
a(I41
I01
tp2637
aa(lp2638
S'7 * 5 + 7'
p2639
a(I42
I01
tp2640
aa(lp2641
S'7 * 5 + 8'
p2642
a(I38
I00
tp2643
aa(lp2644
S'7 * 5 + 9'
p2645
a(I43
I00
tp2646
aa(lp2647
S'7 * 5 - 1'
p2648
a(I34
I01
tp2649
aa(lp2650
S'7 * 5 - 2'
p2651
a(I33
I01
tp2652
aa(lp2653
S'7 * 5 - 3'
p2654
a(I32
I01
tp2655
aa(lp2656
S'7 * 5 - 4'
p2657
a(I30
I00
tp2658
aa(lp2659
S'7 * 5 - 5'
p2660
a(I25
I00
tp2661
aa(lp2662
S'7 * 5 - 6'
p2663
a(I24
I00
tp2664
aa(lp2665
S'7 * 5 - 7'
p2666
a(I28
I01
tp2667
aa(lp2668
S'7 * 5 - 8'
p2669
a(I26
I00
tp2670
aa(lp2671
S'7 * 5 - 9'
p2672
a(I26
I01
tp2673
aa(lp2674
S'7 * 6 + 1'
p2675
a(I43
I01
tp2676
aa(lp2677
S'7 * 6 + 2'
p2678
a(I44
I01
tp2679
aa(lp2680
S'7 * 6 + 3'
p2681
a(I42
I00
tp2682
aa(lp2683
S'7 * 6 + 4'
p2684
a(I41
I00
tp2685
aa(lp2686
S'7 * 6 + 5'
p2687
a(I47
I01
tp2688
aa(lp2689
S'7 * 6 + 6'
p2690
a(I44
I00
tp2691
aa(lp2692
S'7 * 6 + 7'
p2693
a(I48
I00
tp2694
aa(lp2695
S'7 * 6 + 8'
p2696
a(I47
I00
tp2697
aa(lp2698
S'7 * 6 + 9'
p2699
a(I51
I01
tp2700
aa(lp2701
S'7 * 6 - 1'
p2702
a(I37
I00
tp2703
aa(lp2704
S'7 * 6 - 2'
p2705
a(I40
I01
tp2706
aa(lp2707
S'7 * 6 - 3'
p2708
a(I38
I00
tp2709
aa(lp2710
S'7 * 6 - 4'
p2711
a(I38
I01
tp2712
aa(lp2713
S'7 * 6 - 5'
p2714
a(I37
I01
tp2715
aa(lp2716
S'7 * 6 - 6'
p2717
a(I36
I01
tp2718
aa(lp2719
S'7 * 6 - 7'
p2720
a(I33
I00
tp2721
aa(lp2722
S'7 * 6 - 8'
p2723
a(I32
I00
tp2724
aa(lp2725
S'7 * 6 - 9'
p2726
a(I33
I01
tp2727
aa(lp2728
S'7 * 8 + 1'
p2729
a(I54
I00
tp2730
aa(lp2731
S'7 * 8 + 2'
p2732
a(I58
I01
tp2733
aa(lp2734
S'7 * 8 + 3'
p2735
a(I54
I00
tp2736
aa(lp2737
S'7 * 8 + 4'
p2738
a(I60
I01
tp2739
aa(lp2740
S'7 * 8 + 5'
p2741
a(I60
I00
tp2742
aa(lp2743
S'7 * 8 + 6'
p2744
a(I62
I01
tp2745
aa(lp2746
S'7 * 8 + 7'
p2747
a(I63
I01
tp2748
aa(lp2749
S'7 * 8 + 8'
p2750
a(I64
I01
tp2751
aa(lp2752
S'7 * 8 + 9'
p2753
a(I60
I00
tp2754
aa(lp2755
S'7 * 8 - 1'
p2756
a(I54
I00
tp2757
aa(lp2758
S'7 * 8 - 2'
p2759
a(I52
I00
tp2760
aa(lp2761
S'7 * 8 - 3'
p2762
a(I52
I00
tp2763
aa(lp2764
S'7 * 8 - 4'
p2765
a(I50
I00
tp2766
aa(lp2767
S'7 * 8 - 5'
p2768
a(I51
I01
tp2769
aa(lp2770
S'7 * 8 - 6'
p2771
a(I48
I00
tp2772
aa(lp2773
S'7 * 8 - 7'
p2774
a(I49
I01
tp2775
aa(lp2776
S'7 * 8 - 8'
p2777
a(I46
I00
tp2778
aa(lp2779
S'7 * 8 - 9'
p2780
a(I47
I01
tp2781
aa(lp2782
S'7 * 9 + 1'
p2783
a(I64
I01
tp2784
aa(lp2785
S'7 * 9 + 2'
p2786
a(I61
I00
tp2787
aa(lp2788
S'7 * 9 + 3'
p2789
a(I65
I00
tp2790
aa(lp2791
S'7 * 9 + 4'
p2792
a(I65
I00
tp2793
aa(lp2794
S'7 * 9 + 5'
p2795
a(I68
I01
tp2796
aa(lp2797
S'7 * 9 + 6'
p2798
a(I69
I01
tp2799
aa(lp2800
S'7 * 9 + 7'
p2801
a(I70
I01
tp2802
aa(lp2803
S'7 * 9 + 8'
p2804
a(I71
I01
tp2805
aa(lp2806
S'7 * 9 + 9'
p2807
a(I72
I01
tp2808
aa(lp2809
S'7 * 9 - 1'
p2810
a(I61
I00
tp2811
aa(lp2812
S'7 * 9 - 2'
p2813
a(I61
I01
tp2814
aa(lp2815
S'7 * 9 - 3'
p2816
a(I57
I00
tp2817
aa(lp2818
S'7 * 9 - 4'
p2819
a(I59
I01
tp2820
aa(lp2821
S'7 * 9 - 5'
p2822
a(I58
I01
tp2823
aa(lp2824
S'7 * 9 - 6'
p2825
a(I53
I00
tp2826
aa(lp2827
S'7 * 9 - 7'
p2828
a(I52
I00
tp2829
aa(lp2830
S'7 * 9 - 8'
p2831
a(I55
I01
tp2832
aa(lp2833
S'7 * 9 - 9'
p2834
a(I50
I00
tp2835
aa(lp2836
S'8 * 1 + 1'
p2837
a(I7
I00
tp2838
aa(lp2839
S'8 * 1 + 2'
p2840
a(I10
I01
tp2841
aa(lp2842
S'8 * 1 + 3'
p2843
a(I11
I01
tp2844
aa(lp2845
S'8 * 1 + 4'
p2846
a(I12
I01
tp2847
aa(lp2848
S'8 * 1 + 5'
p2849
a(I13
I01
tp2850
aa(lp2851
S'8 * 1 + 6'
p2852
a(I11
I00
tp2853
aa(lp2854
S'8 * 1 + 7'
p2855
a(I12
I00
tp2856
aa(lp2857
S'8 * 1 + 8'
p2858
a(I11
I00
tp2859
aa(lp2860
S'8 * 1 + 9'
p2861
a(I13
I00
tp2862
aa(lp2863
S'8 * 1 - 1'
p2864
a(I6
I00
tp2865
aa(lp2866
S'8 * 1 - 2'
p2867
a(I6
I01
tp2868
aa(lp2869
S'8 * 1 - 3'
p2870
a(I4
I00
tp2871
aa(lp2872
S'8 * 1 - 4'
p2873
a(I1
I00
tp2874
aa(lp2875
S'8 * 1 - 5'
p2876
a(I0
I00
tp2877
aa(lp2878
S'8 * 1 - 6'
p2879
a(I1
I00
tp2880
aa(lp2881
S'8 * 1 - 7'
p2882
a(I1
I01
tp2883
aa(lp2884
S'8 * 1 - 8'
p2885
a(I2
I00
tp2886
aa(lp2887
S'8 * 2 + 1'
p2888
a(I17
I01
tp2889
aa(lp2890
S'8 * 2 + 2'
p2891
a(I18
I01
tp2892
aa(lp2893
S'8 * 2 + 3'
p2894
a(I19
I01
tp2895
aa(lp2896
S'8 * 2 + 4'
p2897
a(I19
I00
tp2898
aa(lp2899
S'8 * 2 + 5'
p2900
a(I21
I01
tp2901
aa(lp2902
S'8 * 2 + 6'
p2903
a(I17
I00
tp2904
aa(lp2905
S'8 * 2 + 7'
p2906
a(I20
I00
tp2907
aa(lp2908
S'8 * 2 + 8'
p2909
a(I23
I00
tp2910
aa(lp2911
S'8 * 2 + 9'
p2912
a(I25
I01
tp2913
aa(lp2914
S'8 * 2 - 1'
p2915
a(I15
I01
tp2916
aa(lp2917
S'8 * 2 - 2'
p2918
a(I10
I00
tp2919
aa(lp2920
S'8 * 2 - 3'
p2921
a(I13
I01
tp2922
aa(lp2923
S'8 * 2 - 4'
p2924
a(I11
I00
tp2925
aa(lp2926
S'8 * 2 - 5'
p2927
a(I11
I01
tp2928
aa(lp2929
S'8 * 2 - 6'
p2930
a(I10
I01
tp2931
aa(lp2932
S'8 * 2 - 7'
p2933
a(I5
I00
tp2934
aa(lp2935
S'8 * 2 - 8'
p2936
a(I7
I00
tp2937
aa(lp2938
S'8 * 2 - 9'
p2939
a(I7
I01
tp2940
aa(lp2941
S'8 * 3 + 1'
p2942
a(I25
I01
tp2943
aa(lp2944
S'8 * 3 + 2'
p2945
a(I24
I00
tp2946
aa(lp2947
S'8 * 3 + 3'
p2948
a(I26
I00
tp2949
aa(lp2950
S'8 * 3 + 4'
p2951
a(I24
I00
tp2952
aa(lp2953
S'8 * 3 + 5'
p2954
a(I29
I01
tp2955
aa(lp2956
S'8 * 3 + 6'
p2957
a(I30
I01
tp2958
aa(lp2959
S'8 * 3 + 7'
p2960
a(I31
I01
tp2961
aa(lp2962
S'8 * 3 + 8'
p2963
a(I32
I01
tp2964
aa(lp2965
S'8 * 3 + 9'
p2966
a(I28
I00
tp2967
aa(lp2968
S'8 * 3 - 1'
p2969
a(I23
I01
tp2970
aa(lp2971
S'8 * 3 - 2'
p2972
a(I20
I00
tp2973
aa(lp2974
S'8 * 3 - 3'
p2975
a(I18
I00
tp2976
aa(lp2977
S'8 * 3 - 4'
p2978
a(I18
I00
tp2979
aa(lp2980
S'8 * 3 - 5'
p2981
a(I17
I00
tp2982
aa(lp2983
S'8 * 3 - 6'
p2984
a(I16
I00
tp2985
aa(lp2986
S'8 * 3 - 7'
p2987
a(I14
I00
tp2988
aa(lp2989
S'8 * 3 - 8'
p2990
a(I16
I01
tp2991
aa(lp2992
S'8 * 3 - 9'
p2993
a(I15
I01
tp2994
aa(lp2995
S'8 * 4 + 1'
p2996
a(I32
I00
tp2997
aa(lp2998
S'8 * 4 + 2'
p2999
a(I32
I00
tp3000
aa(lp3001
S'8 * 4 + 3'
p3002
a(I35
I01
tp3003
aa(lp3004
S'8 * 4 + 4'
p3005
a(I34
I00
tp3006
aa(lp3007
S'8 * 4 + 5'
p3008
a(I37
I01
tp3009
aa(lp3010
S'8 * 4 + 6'
p3011
a(I38
I01
tp3012
aa(lp3013
S'8 * 4 + 7'
p3014
a(I39
I01
tp3015
aa(lp3016
S'8 * 4 + 8'
p3017
a(I35
I00
tp3018
aa(lp3019
S'8 * 4 + 9'
p3020
a(I41
I01
tp3021
aa(lp3022
S'8 * 4 - 1'
p3023
a(I29
I00
tp3024
aa(lp3025
S'8 * 4 - 2'
p3026
a(I30
I01
tp3027
aa(lp3028
S'8 * 4 - 3'
p3029
a(I29
I01
tp3030
aa(lp3031
S'8 * 4 - 4'
p3032
a(I28
I01
tp3033
aa(lp3034
S'8 * 4 - 5'
p3035
a(I27
I01
tp3036
aa(lp3037
S'8 * 4 - 6'
p3038
a(I24
I00
tp3039
aa(lp3040
S'8 * 4 - 7'
p3041
a(I22
I00
tp3042
aa(lp3043
S'8 * 4 - 8'
p3044
a(I24
I01
tp3045
aa(lp3046
S'8 * 4 - 9'
p3047
a(I19
I00
tp3048
aa(lp3049
S'8 * 5 + 1'
p3050
a(I40
I00
tp3051
aa(lp3052
S'8 * 5 + 2'
p3053
a(I42
I01
tp3054
aa(lp3055
S'8 * 5 + 3'
p3056
a(I42
I00
tp3057
aa(lp3058
S'8 * 5 + 4'
p3059
a(I43
I00
tp3060
aa(lp3061
S'8 * 5 + 5'
p3062
a(I42
I00
tp3063
aa(lp3064
S'8 * 5 + 6'
p3065
a(I45
I00
tp3066
aa(lp3067
S'8 * 5 + 7'
p3068
a(I47
I01
tp3069
aa(lp3070
S'8 * 5 + 8'
p3071
a(I48
I01
tp3072
aa(lp3073
S'8 * 5 + 9'
p3074
a(I46
I00
tp3075
aa(lp3076
S'8 * 5 - 1'
p3077
a(I35
I00
tp3078
aa(lp3079
S'8 * 5 - 2'
p3080
a(I37
I00
tp3081
aa(lp3082
S'8 * 5 - 3'
p3083
a(I37
I01
tp3084
aa(lp3085
S'8 * 5 - 4'
p3086
a(I36
I01
tp3087
aa(lp3088
S'8 * 5 - 5'
p3089
a(I35
I01
tp3090
aa(lp3091
S'8 * 5 - 6'
p3092
a(I34
I01
tp3093
aa(lp3094
S'8 * 5 - 7'
p3095
a(I28
I00
tp3096
aa(lp3097
S'8 * 5 - 8'
p3098
a(I27
I00
tp3099
aa(lp3100
S'8 * 5 - 9'
p3101
a(I31
I01
tp3102
aa(lp3103
S'8 * 6 + 1'
p3104
a(I46
I00
tp3105
aa(lp3106
S'8 * 6 + 2'
p3107
a(I50
I01
tp3108
aa(lp3109
S'8 * 6 + 3'
p3110
a(I51
I01
tp3111
aa(lp3112
S'8 * 6 + 4'
p3113
a(I47
I00
tp3114
aa(lp3115
S'8 * 6 + 5'
p3116
a(I53
I01
tp3117
aa(lp3118
S'8 * 6 + 6'
p3119
a(I53
I00
tp3120
aa(lp3121
S'8 * 6 + 7'
p3122
a(I51
I00
tp3123
aa(lp3124
S'8 * 6 + 8'
p3125
a(I54
I00
tp3126
aa(lp3127
S'8 * 6 + 9'
p3128
a(I53
I00
tp3129
aa(lp3130
S'8 * 6 - 1'
p3131
a(I47
I01
tp3132
aa(lp3133
S'8 * 6 - 2'
p3134
a(I46
I01
tp3135
aa(lp3136
S'8 * 6 - 3'
p3137
a(I41
I00
tp3138
aa(lp3139
S'8 * 6 - 4'
p3140
a(I42
I00
tp3141
aa(lp3142
S'8 * 6 - 5'
p3143
a(I43
I01
tp3144
aa(lp3145
S'8 * 6 - 6'
p3146
a(I39
I00
tp3147
aa(lp3148
S'8 * 6 - 7'
p3149
a(I37
I00
tp3150
aa(lp3151
S'8 * 6 - 8'
p3152
a(I36
I00
tp3153
aa(lp3154
S'8 * 6 - 9'
p3155
a(I35
I00
tp3156
aa(lp3157
S'8 * 7 + 1'
p3158
a(I57
I01
tp3159
aa(lp3160
S'8 * 7 + 2'
p3161
a(I56
I00
tp3162
aa(lp3163
S'8 * 7 + 3'
p3164
a(I59
I01
tp3165
aa(lp3166
S'8 * 7 + 4'
p3167
a(I60
I01
tp3168
aa(lp3169
S'8 * 7 + 5'
p3170
a(I59
I00
tp3171
aa(lp3172
S'8 * 7 + 6'
p3173
a(I58
I00
tp3174
aa(lp3175
S'8 * 7 + 7'
p3176
a(I59
I00
tp3177
aa(lp3178
S'8 * 7 + 8'
p3179
a(I60
I00
tp3180
aa(lp3181
S'8 * 7 + 9'
p3182
a(I60
I00
tp3183
aa(lp3184
S'8 * 7 - 1'
p3185
a(I55
I01
tp3186
aa(lp3187
S'8 * 7 - 2'
p3188
a(I50
I00
tp3189
aa(lp3190
S'8 * 7 - 3'
p3191
a(I49
I00
tp3192
aa(lp3193
S'8 * 7 - 4'
p3194
a(I47
I00
tp3195
aa(lp3196
S'8 * 7 - 5'
p3197
a(I51
I01
tp3198
aa(lp3199
S'8 * 7 - 6'
p3200
a(I48
I00
tp3201
aa(lp3202
S'8 * 7 - 7'
p3203
a(I49
I01
tp3204
aa(lp3205
S'8 * 7 - 8'
p3206
a(I44
I00
tp3207
aa(lp3208
S'8 * 7 - 9'
p3209
a(I45
I00
tp3210
aa(lp3211
S'8 * 9 + 1'
p3212
a(I72
I00
tp3213
aa(lp3214
S'8 * 9 + 2'
p3215
a(I73
I00
tp3216
aa(lp3217
S'8 * 9 + 3'
p3218
a(I71
I00
tp3219
aa(lp3220
S'8 * 9 + 4'
p3221
a(I75
I00
tp3222
aa(lp3223
S'8 * 9 + 5'
p3224
a(I73
I00
tp3225
aa(lp3226
S'8 * 9 + 6'
p3227
a(I78
I01
tp3228
aa(lp3229
S'8 * 9 + 7'
p3230
a(I75
I00
tp3231
aa(lp3232
S'8 * 9 + 8'
p3233
a(I80
I01
tp3234
aa(lp3235
S'8 * 9 + 9'
p3236
a(I78
I00
tp3237
aa(lp3238
S'8 * 9 - 1'
p3239
a(I66
I00
tp3240
aa(lp3241
S'8 * 9 - 2'
p3242
a(I70
I01
tp3243
aa(lp3244
S'8 * 9 - 3'
p3245
a(I69
I01
tp3246
aa(lp3247
S'8 * 9 - 4'
p3248
a(I68
I01
tp3249
aa(lp3250
S'8 * 9 - 5'
p3251
a(I66
I00
tp3252
aa(lp3253
S'8 * 9 - 6'
p3254
a(I65
I00
tp3255
aa(lp3256
S'8 * 9 - 7'
p3257
a(I63
I00
tp3258
aa(lp3259
S'8 * 9 - 8'
p3260
a(I64
I01
tp3261
aa(lp3262
S'8 * 9 - 9'
p3263
a(I63
I01
tp3264
aa(lp3265
S'9 * 1 + 1'
p3266
a(I10
I01
tp3267
aa(lp3268
S'9 * 1 + 2'
p3269
a(I10
I00
tp3270
aa(lp3271
S'9 * 1 + 3'
p3272
a(I9
I00
tp3273
aa(lp3274
S'9 * 1 + 4'
p3275
a(I13
I01
tp3276
aa(lp3277
S'9 * 1 + 5'
p3278
a(I10
I00
tp3279
aa(lp3280
S'9 * 1 + 6'
p3281
a(I14
I00
tp3282
aa(lp3283
S'9 * 1 + 7'
p3284
a(I15
I00
tp3285
aa(lp3286
S'9 * 1 + 8'
p3287
a(I17
I01
tp3288
aa(lp3289
S'9 * 1 + 9'
p3290
a(I15
I00
tp3291
aa(lp3292
S'9 * 1 - 1'
p3293
a(I4
I00
tp3294
aa(lp3295
S'9 * 1 - 2'
p3296
a(I7
I01
tp3297
aa(lp3298
S'9 * 1 - 3'
p3299
a(I5
I00
tp3300
aa(lp3301
S'9 * 1 - 4'
p3302
a(I3
I00
tp3303
aa(lp3304
S'9 * 1 - 5'
p3305
a(I4
I01
tp3306
aa(lp3307
S'9 * 1 - 6'
p3308
a(I3
I01
tp3309
aa(lp3310
S'9 * 1 - 7'
p3311
a(I3
I00
tp3312
aa(lp3313
S'9 * 1 - 8'
p3314
a(I2
I00
tp3315
aa(lp3316
S'9 * 1 - 9'
p3317
a(I5
I00
tp3318
aa(lp3319
S'9 * 2 + 1'
p3320
a(I18
I00
tp3321
aa(lp3322
S'9 * 2 + 2'
p3323
a(I15
I00
tp3324
aa(lp3325
S'9 * 2 + 3'
p3326
a(I19
I00
tp3327
aa(lp3328
S'9 * 2 + 4'
p3329
a(I22
I01
tp3330
aa(lp3331
S'9 * 2 + 5'
p3332
a(I23
I01
tp3333
aa(lp3334
S'9 * 2 + 6'
p3335
a(I24
I01
tp3336
aa(lp3337
S'9 * 2 + 7'
p3338
a(I22
I00
tp3339
aa(lp3340
S'9 * 2 + 8'
p3341
a(I22
I00
tp3342
aa(lp3343
S'9 * 2 + 9'
p3344
a(I23
I00
tp3345
aa(lp3346
S'9 * 2 - 1'
p3347
a(I17
I01
tp3348
aa(lp3349
S'9 * 2 - 2'
p3350
a(I13
I00
tp3351
aa(lp3352
S'9 * 2 - 3'
p3353
a(I15
I01
tp3354
aa(lp3355
S'9 * 2 - 4'
p3356
a(I14
I01
tp3357
aa(lp3358
S'9 * 2 - 5'
p3359
a(I9
I00
tp3360
aa(lp3361
S'9 * 2 - 6'
p3362
a(I7
I00
tp3363
aa(lp3364
S'9 * 2 - 7'
p3365
a(I11
I01
tp3366
aa(lp3367
S'9 * 2 - 8'
p3368
a(I10
I01
tp3369
aa(lp3370
S'9 * 2 - 9'
p3371
a(I5
I00
tp3372
aa(lp3373
S'9 * 3 + 1'
p3374
a(I23
I00
tp3375
aa(lp3376
S'9 * 3 + 2'
p3377
a(I29
I01
tp3378
aa(lp3379
S'9 * 3 + 3'
p3380
a(I26
I00
tp3381
aa(lp3382
S'9 * 3 + 4'
p3383
a(I26
I00
tp3384
aa(lp3385
S'9 * 3 + 5'
p3386
a(I32
I01
tp3387
aa(lp3388
S'9 * 3 + 6'
p3389
a(I33
I01
tp3390
aa(lp3391
S'9 * 3 + 7'
p3392
a(I31
I00
tp3393
aa(lp3394
S'9 * 3 + 8'
p3395
a(I35
I01
tp3396
aa(lp3397
S'9 * 3 + 9'
p3398
a(I35
I00
tp3399
aa(lp3400
S'9 * 3 - 1'
p3401
a(I25
I00
tp3402
aa(lp3403
S'9 * 3 - 2'
p3404
a(I25
I01
tp3405
aa(lp3406
S'9 * 3 - 3'
p3407
a(I21
I00
tp3408
aa(lp3409
S'9 * 3 - 4'
p3410
a(I20
I00
tp3411
aa(lp3412
S'9 * 3 - 5'
p3413
a(I22
I01
tp3414
aa(lp3415
S'9 * 3 - 6'
p3416
a(I18
I00
tp3417
aa(lp3418
S'9 * 3 - 7'
p3419
a(I16
I00
tp3420
aa(lp3421
S'9 * 3 - 8'
p3422
a(I16
I00
tp3423
aa(lp3424
S'9 * 3 - 9'
p3425
a(I15
I00
tp3426
aa(lp3427
S'9 * 4 + 1'
p3428
a(I33
I00
tp3429
aa(lp3430
S'9 * 4 + 2'
p3431
a(I38
I01
tp3432
aa(lp3433
S'9 * 4 + 3'
p3434
a(I34
I00
tp3435
aa(lp3436
S'9 * 4 + 4'
p3437
a(I40
I01
tp3438
aa(lp3439
S'9 * 4 + 5'
p3440
a(I38
I00
tp3441
aa(lp3442
S'9 * 4 + 6'
p3443
a(I41
I00
tp3444
aa(lp3445
S'9 * 4 + 7'
p3446
a(I41
I00
tp3447
aa(lp3448
S'9 * 4 + 8'
p3449
a(I44
I01
tp3450
aa(lp3451
S'9 * 4 + 9'
p3452
a(I41
I00
tp3453
aa(lp3454
S'9 * 4 - 1'
p3455
a(I33
I00
tp3456
aa(lp3457
S'9 * 4 - 2'
p3458
a(I34
I01
tp3459
aa(lp3460
S'9 * 4 - 3'
p3461
a(I33
I01
tp3462
aa(lp3463
S'9 * 4 - 4'
p3464
a(I31
I00
tp3465
aa(lp3466
S'9 * 4 - 5'
p3467
a(I28
I00
tp3468
aa(lp3469
S'9 * 4 - 6'
p3470
a(I30
I01
tp3471
aa(lp3472
S'9 * 4 - 7'
p3473
a(I26
I00
tp3474
aa(lp3475
S'9 * 4 - 8'
p3476
a(I27
I00
tp3477
aa(lp3478
S'9 * 4 - 9'
p3479
a(I27
I01
tp3480
aa(lp3481
S'9 * 5 + 1'
p3482
a(I46
I01
tp3483
aa(lp3484
S'9 * 5 + 2'
p3485
a(I43
I00
tp3486
aa(lp3487
S'9 * 5 + 3'
p3488
a(I46
I00
tp3489
aa(lp3490
S'9 * 5 + 4'
p3491
a(I49
I01
tp3492
aa(lp3493
S'9 * 5 + 5'
p3494
a(I48
I00
tp3495
aa(lp3496
S'9 * 5 + 6'
p3497
a(I48
I00
tp3498
aa(lp3499
S'9 * 5 + 7'
p3500
a(I51
I00
tp3501
aa(lp3502
S'9 * 5 + 8'
p3503
a(I53
I01
tp3504
aa(lp3505
S'9 * 5 + 9'
p3506
a(I54
I01
tp3507
aa(lp3508
S'9 * 5 - 1'
p3509
a(I44
I01
tp3510
aa(lp3511
S'9 * 5 - 2'
p3512
a(I43
I01
tp3513
aa(lp3514
S'9 * 5 - 3'
p3515
a(I39
I00
tp3516
aa(lp3517
S'9 * 5 - 4'
p3518
a(I41
I01
tp3519
aa(lp3520
S'9 * 5 - 5'
p3521
a(I36
I00
tp3522
aa(lp3523
S'9 * 5 - 6'
p3524
a(I37
I00
tp3525
aa(lp3526
S'9 * 5 - 7'
p3527
a(I36
I00
tp3528
aa(lp3529
S'9 * 5 - 8'
p3530
a(I37
I01
tp3531
aa(lp3532
S'9 * 5 - 9'
p3533
a(I35
I00
tp3534
aa(lp3535
S'9 * 6 + 1'
p3536
a(I50
I00
tp3537
aa(lp3538
S'9 * 6 + 2'
p3539
a(I56
I01
tp3540
aa(lp3541
S'9 * 6 + 3'
p3542
a(I57
I01
tp3543
aa(lp3544
S'9 * 6 + 4'
p3545
a(I58
I01
tp3546
aa(lp3547
S'9 * 6 + 5'
p3548
a(I58
I00
tp3549
aa(lp3550
S'9 * 6 + 6'
p3551
a(I56
I00
tp3552
aa(lp3553
S'9 * 6 + 7'
p3554
a(I58
I00
tp3555
aa(lp3556
S'9 * 6 + 8'
p3557
a(I61
I00
tp3558
aa(lp3559
S'9 * 6 + 9'
p3560
a(I58
I00
tp3561
aa(lp3562
S'9 * 6 - 1'
p3563
a(I53
I01
tp3564
aa(lp3565
S'9 * 6 - 2'
p3566
a(I50
I00
tp3567
aa(lp3568
S'9 * 6 - 3'
p3569
a(I51
I01
tp3570
aa(lp3571
S'9 * 6 - 4'
p3572
a(I50
I01
tp3573
aa(lp3574
S'9 * 6 - 5'
p3575
a(I44
I00
tp3576
aa(lp3577
S'9 * 6 - 6'
p3578
a(I48
I01
tp3579
aa(lp3580
S'9 * 6 - 7'
p3581
a(I47
I01
tp3582
aa(lp3583
S'9 * 6 - 8'
p3584
a(I44
I00
tp3585
aa(lp3586
S'9 * 6 - 9'
p3587
a(I42
I00
tp3588
aa(lp3589
S'9 * 7 + 1'
p3590
a(I62
I00
tp3591
aa(lp3592
S'9 * 7 + 2'
p3593
a(I63
I00
tp3594
aa(lp3595
S'9 * 7 + 3'
p3596
a(I64
I00
tp3597
aa(lp3598
S'9 * 7 + 4'
p3599
a(I67
I01
tp3600
aa(lp3601
S'9 * 7 + 5'
p3602
a(I67
I00
tp3603
aa(lp3604
S'9 * 7 + 6'
p3605
a(I64
I00
tp3606
aa(lp3607
S'9 * 7 + 7'
p3608
a(I70
I01
tp3609
aa(lp3610
S'9 * 7 + 8'
p3611
a(I71
I01
tp3612
aa(lp3613
S'9 * 7 + 9'
p3614
a(I69
I00
tp3615
aa(lp3616
S'9 * 7 - 1'
p3617
a(I58
I00
tp3618
aa(lp3619
S'9 * 7 - 2'
p3620
a(I59
I00
tp3621
aa(lp3622
S'9 * 7 - 3'
p3623
a(I60
I01
tp3624
aa(lp3625
S'9 * 7 - 4'
p3626
a(I55
I00
tp3627
aa(lp3628
S'9 * 7 - 5'
p3629
a(I58
I01
tp3630
aa(lp3631
S'9 * 7 - 6'
p3632
a(I57
I01
tp3633
aa(lp3634
S'9 * 7 - 7'
p3635
a(I56
I01
tp3636
aa(lp3637
S'9 * 7 - 8'
p3638
a(I54
I00
tp3639
aa(lp3640
S'9 * 7 - 9'
p3641
a(I54
I01
tp3642
aa(lp3643
S'9 * 8 + 1'
p3644
a(I71
I00
tp3645
aa(lp3646
S'9 * 8 + 2'
p3647
a(I74
I01
tp3648
aa(lp3649
S'9 * 8 + 3'
p3650
a(I75
I01
tp3651
aa(lp3652
S'9 * 8 + 4'
p3653
a(I76
I01
tp3654
aa(lp3655
S'9 * 8 + 5'
p3656
a(I77
I01
tp3657
aa(lp3658
S'9 * 8 + 6'
p3659
a(I78
I01
tp3660
aa(lp3661
S'9 * 8 + 7'
p3662
a(I76
I00
tp3663
aa(lp3664
S'9 * 8 + 8'
p3665
a(I80
I01
tp3666
aa(lp3667
S'9 * 8 + 9'
p3668
a(I81
I01
tp3669
aa(lp3670
S'9 * 8 - 1'
p3671
a(I66
I00
tp3672
aa(lp3673
S'9 * 8 - 2'
p3674
a(I70
I01
tp3675
aa(lp3676
S'9 * 8 - 3'
p3677
a(I69
I01
tp3678
aa(lp3679
S'9 * 8 - 4'
p3680
a(I66
I00
tp3681
aa(lp3682
S'9 * 8 - 5'
p3683
a(I67
I01
tp3684
aa(lp3685
S'9 * 8 - 6'
p3686
a(I61
I00
tp3687
aa(lp3688
S'9 * 8 - 7'
p3689
a(I64
I00
tp3690
aa(lp3691
S'9 * 8 - 8'
p3692
a(I64
I01
tp3693
aa(lp3694
S'9 * 8 - 9'
p3695
a(I60
I00
tp3696
aa(lp3697
S'1 / 1 + 1'
p3698
a(I2
I01
tp3699
aa(lp3700
S'1 / 1 + 2'
p3701
a(I3
I01
tp3702
aa(lp3703
S'1 / 1 + 3'
p3704
a(I9
I00
tp3705
aa(lp3706
S'1 / 1 + 4'
p3707
a(I5
I01
tp3708
aa(lp3709
S'1 / 1 + 5'
p3710
a(I5
I00
tp3711
aa(lp3712
S'1 / 1 + 6'
p3713
a(I5
I00
tp3714
aa(lp3715
S'1 / 1 + 7'
p3716
a(I7
I00
tp3717
aa(lp3718
S'1 / 1 + 8'
p3719
a(I6
I00
tp3720
aa(lp3721
S'1 / 1 + 9'
p3722
a(I7
I00
tp3723
aa(lp3724
S'1 / 1 - 1'
p3725
a(I2
I00
tp3726
aa(lp3727
S'2 / 1 + 1'
p3728
a(I1
I00
tp3729
aa(lp3730
S'2 / 1 + 2'
p3731
a(I4
I01
tp3732
aa(lp3733
S'2 / 1 + 3'
p3734
a(I5
I01
tp3735
aa(lp3736
S'2 / 1 + 4'
p3737
a(I6
I01
tp3738
aa(lp3739
S'2 / 1 + 5'
p3740
a(I3
I00
tp3741
aa(lp3742
S'2 / 1 + 6'
p3743
a(I8
I01
tp3744
aa(lp3745
S'2 / 1 + 7'
p3746
a(I4
I00
tp3747
aa(lp3748
S'2 / 1 + 8'
p3749
a(I8
I00
tp3750
aa(lp3751
S'2 / 1 + 9'
p3752
a(I11
I01
tp3753
aa(lp3754
S'2 / 1 - 1'
p3755
a(I6
I00
tp3756
aa(lp3757
S'2 / 1 - 2'
p3758
a(I4
I00
tp3759
aa(lp3760
S'2 / 2 + 1'
p3761
a(I2
I01
tp3762
aa(lp3763
S'2 / 2 + 2'
p3764
a(I3
I01
tp3765
aa(lp3766
S'2 / 2 + 3'
p3767
a(I4
I01
tp3768
aa(lp3769
S'2 / 2 + 4'
p3770
a(I5
I01
tp3771
aa(lp3772
S'2 / 2 + 5'
p3773
a(I6
I01
tp3774
aa(lp3775
S'2 / 2 + 6'
p3776
a(I6
I00
tp3777
aa(lp3778
S'2 / 2 + 7'
p3779
a(I8
I01
tp3780
aa(lp3781
S'2 / 2 + 8'
p3782
a(I7
I00
tp3783
aa(lp3784
S'2 / 2 + 9'
p3785
a(I10
I01
tp3786
aa(lp3787
S'2 / 2 - 1'
p3788
a(I4
I00
tp3789
aa(lp3790
S'3 / 1 + 1'
p3791
a(I3
I00
tp3792
aa(lp3793
S'3 / 1 + 2'
p3794
a(I5
I01
tp3795
aa(lp3796
S'3 / 1 + 3'
p3797
a(I6
I01
tp3798
aa(lp3799
S'3 / 1 + 4'
p3800
a(I6
I00
tp3801
aa(lp3802
S'3 / 1 + 5'
p3803
a(I7
I00
tp3804
aa(lp3805
S'3 / 1 + 6'
p3806
a(I6
I00
tp3807
aa(lp3808
S'3 / 1 + 7'
p3809
a(I6
I00
tp3810
aa(lp3811
S'3 / 1 + 8'
p3812
a(I7
I00
tp3813
aa(lp3814
S'3 / 1 + 9'
p3815
a(I7
I00
tp3816
aa(lp3817
S'3 / 1 - 1'
p3818
a(I7
I00
tp3819
aa(lp3820
S'3 / 1 - 2'
p3821
a(I6
I00
tp3822
aa(lp3823
S'3 / 1 - 3'
p3824
a(I1
I00
tp3825
aa(lp3826
S'3 / 3 + 1'
p3827
a(I1
I00
tp3828
aa(lp3829
S'3 / 3 + 2'
p3830
a(I3
I01
tp3831
aa(lp3832
S'3 / 3 + 3'
p3833
a(I4
I01
tp3834
aa(lp3835
S'3 / 3 + 4'
p3836
a(I4
I00
tp3837
aa(lp3838
S'3 / 3 + 5'
p3839
a(I2
I00
tp3840
aa(lp3841
S'3 / 3 + 6'
p3842
a(I7
I01
tp3843
aa(lp3844
S'3 / 3 + 7'
p3845
a(I5
I00
tp3846
aa(lp3847
S'3 / 3 + 8'
p3848
a(I9
I01
tp3849
aa(lp3850
S'3 / 3 + 9'
p3851
a(I10
I01
tp3852
aa(lp3853
S'3 / 3 - 1'
p3854
a(I0
I01
tp3855
aa(lp3856
S'4 / 1 + 1'
p3857
a(I1
I00
tp3858
aa(lp3859
S'4 / 1 + 2'
p3860
a(I6
I01
tp3861
aa(lp3862
S'4 / 1 + 3'
p3863
a(I4
I00
tp3864
aa(lp3865
S'4 / 1 + 4'
p3866
a(I8
I01
tp3867
aa(lp3868
S'4 / 1 + 5'
p3869
a(I9
I01
tp3870
aa(lp3871
S'4 / 1 + 6'
p3872
a(I7
I00
tp3873
aa(lp3874
S'4 / 1 + 7'
p3875
a(I11
I01
tp3876
aa(lp3877
S'4 / 1 + 8'
p3878
a(I12
I01
tp3879
aa(lp3880
S'4 / 1 + 9'
p3881
a(I9
I00
tp3882
aa(lp3883
S'4 / 1 - 1'
p3884
a(I3
I01
tp3885
aa(lp3886
S'4 / 1 - 2'
p3887
a(I3
I00
tp3888
aa(lp3889
S'4 / 1 - 3'
p3890
a(I1
I01
tp3891
aa(lp3892
S'4 / 1 - 4'
p3893
a(I0
I01
tp3894
aa(lp3895
S'4 / 2 + 1'
p3896
a(I3
I01
tp3897
aa(lp3898
S'4 / 2 + 2'
p3899
a(I0
I00
tp3900
aa(lp3901
S'4 / 2 + 3'
p3902
a(I5
I01
tp3903
aa(lp3904
S'4 / 2 + 4'
p3905
a(I4
I00
tp3906
aa(lp3907
S'4 / 2 + 5'
p3908
a(I7
I01
tp3909
aa(lp3910
S'4 / 2 + 6'
p3911
a(I4
I00
tp3912
aa(lp3913
S'4 / 2 + 7'
p3914
a(I9
I01
tp3915
aa(lp3916
S'4 / 2 + 8'
p3917
a(I10
I01
tp3918
aa(lp3919
S'4 / 2 + 9'
p3920
a(I7
I00
tp3921
aa(lp3922
S'4 / 2 - 1'
p3923
a(I5
I00
tp3924
aa(lp3925
S'4 / 2 - 2'
p3926
a(I5
I00
tp3927
aa(lp3928
S'4 / 4 + 1'
p3929
a(I2
I01
tp3930
aa(lp3931
S'4 / 4 + 2'
p3932
a(I2
I00
tp3933
aa(lp3934
S'4 / 4 + 3'
p3935
a(I4
I01
tp3936
aa(lp3937
S'4 / 4 + 4'
p3938
a(I5
I01
tp3939
aa(lp3940
S'4 / 4 + 5'
p3941
a(I6
I01
tp3942
aa(lp3943
S'4 / 4 + 6'
p3944
a(I7
I01
tp3945
aa(lp3946
S'4 / 4 + 7'
p3947
a(I8
I01
tp3948
aa(lp3949
S'4 / 4 + 8'
p3950
a(I8
I00
tp3951
aa(lp3952
S'4 / 4 + 9'
p3953
a(I7
I00
tp3954
aa(lp3955
S'4 / 4 - 1'
p3956
a(I0
I01
tp3957
aa(lp3958
S'5 / 1 + 1'
p3959
a(I6
I01
tp3960
aa(lp3961
S'5 / 1 + 2'
p3962
a(I2
I00
tp3963
aa(lp3964
S'5 / 1 + 3'
p3965
a(I8
I01
tp3966
aa(lp3967
S'5 / 1 + 4'
p3968
a(I8
I00
tp3969
aa(lp3970
S'5 / 1 + 5'
p3971
a(I10
I01
tp3972
aa(lp3973
S'5 / 1 + 6'
p3974
a(I11
I01
tp3975
aa(lp3976
S'5 / 1 + 7'
p3977
a(I12
I01
tp3978
aa(lp3979
S'5 / 1 + 8'
p3980
a(I11
I00
tp3981
aa(lp3982
S'5 / 1 + 9'
p3983
a(I11
I00
tp3984
aa(lp3985
S'5 / 1 - 1'
p3986
a(I3
I00
tp3987
aa(lp3988
S'5 / 1 - 2'
p3989
a(I2
I00
tp3990
aa(lp3991
S'5 / 1 - 3'
p3992
a(I3
I00
tp3993
aa(lp3994
S'5 / 1 - 4'
p3995
a(I1
I01
tp3996
aa(lp3997
S'5 / 1 - 5'
p3998
a(I0
I01
tp3999
aa(lp4000
S'5 / 5 + 1'
p4001
a(I2
I01
tp4002
aa(lp4003
S'5 / 5 + 2'
p4004
a(I2
I00
tp4005
aa(lp4006
S'5 / 5 + 3'
p4007
a(I2
I00
tp4008
aa(lp4009
S'5 / 5 + 4'
p4010
a(I5
I01
tp4011
aa(lp4012
S'5 / 5 + 5'
p4013
a(I4
I00
tp4014
aa(lp4015
S'5 / 5 + 6'
p4016
a(I7
I01
tp4017
aa(lp4018
S'5 / 5 + 7'
p4019
a(I4
I00
tp4020
aa(lp4021
S'5 / 5 + 8'
p4022
a(I4
I00
tp4023
aa(lp4024
S'5 / 5 + 9'
p4025
a(I10
I01
tp4026
aa(lp4027
S'5 / 5 - 1'
p4028
a(I0
I01
tp4029
aa(lp4030
S'6 / 1 + 1'
p4031
a(I7
I01
tp4032
aa(lp4033
S'6 / 1 + 2'
p4034
a(I5
I00
tp4035
aa(lp4036
S'6 / 1 + 3'
p4037
a(I9
I01
tp4038
aa(lp4039
S'6 / 1 + 4'
p4040
a(I6
I00
tp4041
aa(lp4042
S'6 / 1 + 5'
p4043
a(I9
I00
tp4044
aa(lp4045
S'6 / 1 + 6'
p4046
a(I10
I00
tp4047
aa(lp4048
S'6 / 1 + 7'
p4049
a(I9
I00
tp4050
aa(lp4051
S'6 / 1 + 8'
p4052
a(I14
I01
tp4053
aa(lp4054
S'6 / 1 + 9'
p4055
a(I14
I00
tp4056
aa(lp4057
S'6 / 1 - 1'
p4058
a(I0
I00
tp4059
aa(lp4060
S'6 / 1 - 2'
p4061
a(I3
I00
tp4062
aa(lp4063
S'6 / 1 - 3'
p4064
a(I3
I01
tp4065
aa(lp4066
S'6 / 1 - 4'
p4067
a(I2
I01
tp4068
aa(lp4069
S'6 / 1 - 5'
p4070
a(I1
I01
tp4071
aa(lp4072
S'6 / 1 - 6'
p4073
a(I5
I00
tp4074
aa(lp4075
S'6 / 2 + 1'
p4076
a(I4
I01
tp4077
aa(lp4078
S'6 / 2 + 2'
p4079
a(I5
I01
tp4080
aa(lp4081
S'6 / 2 + 3'
p4082
a(I2
I00
tp4083
aa(lp4084
S'6 / 2 + 4'
p4085
a(I4
I00
tp4086
aa(lp4087
S'6 / 2 + 5'
p4088
a(I6
I00
tp4089
aa(lp4090
S'6 / 2 + 6'
p4091
a(I9
I01
tp4092
aa(lp4093
S'6 / 2 + 7'
p4094
a(I10
I01
tp4095
aa(lp4096
S'6 / 2 + 8'
p4097
a(I9
I00
tp4098
aa(lp4099
S'6 / 2 + 9'
p4100
a(I12
I01
tp4101
aa(lp4102
S'6 / 2 - 1'
p4103
a(I2
I01
tp4104
aa(lp4105
S'6 / 2 - 2'
p4106
a(I1
I01
tp4107
aa(lp4108
S'6 / 2 - 3'
p4109
a(I1
I00
tp4110
aa(lp4111
S'6 / 3 + 1'
p4112
a(I2
I00
tp4113
aa(lp4114
S'6 / 3 + 2'
p4115
a(I4
I01
tp4116
aa(lp4117
S'6 / 3 + 3'
p4118
a(I1
I00
tp4119
aa(lp4120
S'6 / 3 + 4'
p4121
a(I6
I01
tp4122
aa(lp4123
S'6 / 3 + 5'
p4124
a(I4
I00
tp4125
aa(lp4126
S'6 / 3 + 6'
p4127
a(I8
I01
tp4128
aa(lp4129
S'6 / 3 + 7'
p4130
a(I9
I01
tp4131
aa(lp4132
S'6 / 3 + 8'
p4133
a(I10
I01
tp4134
aa(lp4135
S'6 / 3 + 9'
p4136
a(I11
I01
tp4137
aa(lp4138
S'6 / 3 - 1'
p4139
a(I1
I01
tp4140
aa(lp4141
S'6 / 3 - 2'
p4142
a(I0
I01
tp4143
aa(lp4144
S'6 / 6 + 1'
p4145
a(I2
I01
tp4146
aa(lp4147
S'6 / 6 + 2'
p4148
a(I3
I01
tp4149
aa(lp4150
S'6 / 6 + 3'
p4151
a(I2
I00
tp4152
aa(lp4153
S'6 / 6 + 4'
p4154
a(I1
I00
tp4155
aa(lp4156
S'6 / 6 + 5'
p4157
a(I5
I00
tp4158
aa(lp4159
S'6 / 6 + 6'
p4160
a(I7
I01
tp4161
aa(lp4162
S'6 / 6 + 7'
p4163
a(I4
I00
tp4164
aa(lp4165
S'6 / 6 + 8'
p4166
a(I9
I01
tp4167
aa(lp4168
S'6 / 6 + 9'
p4169
a(I9
I00
tp4170
aa(lp4171
S'6 / 6 - 1'
p4172
a(I0
I01
tp4173
aa(lp4174
S'7 / 1 + 1'
p4175
a(I6
I00
tp4176
aa(lp4177
S'7 / 1 + 2'
p4178
a(I9
I01
tp4179
aa(lp4180
S'7 / 1 + 3'
p4181
a(I6
I00
tp4182
aa(lp4183
S'7 / 1 + 4'
p4184
a(I11
I01
tp4185
aa(lp4186
S'7 / 1 + 5'
p4187
a(I8
I00
tp4188
aa(lp4189
S'7 / 1 + 6'
p4190
a(I13
I01
tp4191
aa(lp4192
S'7 / 1 + 7'
p4193
a(I9
I00
tp4194
aa(lp4195
S'7 / 1 + 8'
p4196
a(I12
I00
tp4197
aa(lp4198
S'7 / 1 + 9'
p4199
a(I13
I00
tp4200
aa(lp4201
S'7 / 1 - 1'
p4202
a(I5
I00
tp4203
aa(lp4204
S'7 / 1 - 2'
p4205
a(I3
I00
tp4206
aa(lp4207
S'7 / 1 - 3'
p4208
a(I2
I00
tp4209
aa(lp4210
S'7 / 1 - 4'
p4211
a(I0
I00
tp4212
aa(lp4213
S'7 / 1 - 5'
p4214
a(I1
I00
tp4215
aa(lp4216
S'7 / 1 - 6'
p4217
a(I2
I00
tp4218
aa(lp4219
S'7 / 1 - 7'
p4220
a(I0
I01
tp4221
aa(lp4222
S'7 / 7 + 1'
p4223
a(I2
I01
tp4224
aa(lp4225
S'7 / 7 + 2'
p4226
a(I3
I01
tp4227
aa(lp4228
S'7 / 7 + 3'
p4229
a(I2
I00
tp4230
aa(lp4231
S'7 / 7 + 4'
p4232
a(I5
I01
tp4233
aa(lp4234
S'7 / 7 + 5'
p4235
a(I5
I00
tp4236
aa(lp4237
S'7 / 7 + 6'
p4238
a(I7
I01
tp4239
aa(lp4240
S'7 / 7 + 7'
p4241
a(I8
I01
tp4242
aa(lp4243
S'7 / 7 + 8'
p4244
a(I9
I01
tp4245
aa(lp4246
S'7 / 7 + 9'
p4247
a(I8
I00
tp4248
aa(lp4249
S'7 / 7 - 1'
p4250
a(I4
I00
tp4251
aa(lp4252
S'8 / 1 + 1'
p4253
a(I4
I00
tp4254
aa(lp4255
S'8 / 1 + 2'
p4256
a(I10
I01
tp4257
aa(lp4258
S'8 / 1 + 3'
p4259
a(I10
I00
tp4260
aa(lp4261
S'8 / 1 + 4'
p4262
a(I10
I00
tp4263
aa(lp4264
S'8 / 1 + 5'
p4265
a(I9
I00
tp4266
aa(lp4267
S'8 / 1 + 6'
p4268
a(I10
I00
tp4269
aa(lp4270
S'8 / 1 + 7'
p4271
a(I12
I00
tp4272
aa(lp4273
S'8 / 1 + 8'
p4274
a(I16
I01
tp4275
aa(lp4276
S'8 / 1 + 9'
p4277
a(I14
I00
tp4278
aa(lp4279
S'8 / 1 - 1'
p4280
a(I5
I00
tp4281
aa(lp4282
S'8 / 1 - 2'
p4283
a(I6
I01
tp4284
aa(lp4285
S'8 / 1 - 3'
p4286
a(I4
I00
tp4287
aa(lp4288
S'8 / 1 - 4'
p4289
a(I0
I00
tp4290
aa(lp4291
S'8 / 1 - 5'
p4292
a(I8
I00
tp4293
aa(lp4294
S'8 / 1 - 6'
p4295
a(I2
I01
tp4296
aa(lp4297
S'8 / 1 - 7'
p4298
a(I2
I00
tp4299
aa(lp4300
S'8 / 1 - 8'
p4301
a(I0
I01
tp4302
aa(lp4303
S'8 / 2 + 1'
p4304
a(I5
I01
tp4305
aa(lp4306
S'8 / 2 + 2'
p4307
a(I6
I01
tp4308
aa(lp4309
S'8 / 2 + 3'
p4310
a(I6
I00
tp4311
aa(lp4312
S'8 / 2 + 4'
p4313
a(I7
I00
tp4314
aa(lp4315
S'8 / 2 + 5'
p4316
a(I6
I00
tp4317
aa(lp4318
S'8 / 2 + 6'
p4319
a(I10
I01
tp4320
aa(lp4321
S'8 / 2 + 7'
p4322
a(I11
I01
tp4323
aa(lp4324
S'8 / 2 + 8'
p4325
a(I12
I01
tp4326
aa(lp4327
S'8 / 2 + 9'
p4328
a(I13
I01
tp4329
aa(lp4330
S'8 / 2 - 1'
p4331
a(I6
I00
tp4332
aa(lp4333
S'8 / 2 - 2'
p4334
a(I3
I00
tp4335
aa(lp4336
S'8 / 2 - 3'
p4337
a(I1
I01
tp4338
aa(lp4339
S'8 / 2 - 4'
p4340
a(I4
I00
tp4341
aa(lp4342
S'8 / 4 + 1'
p4343
a(I3
I01
tp4344
aa(lp4345
S'8 / 4 + 2'
p4346
a(I0
I00
tp4347
aa(lp4348
S'8 / 4 + 3'
p4349
a(I5
I01
tp4350
aa(lp4351
S'8 / 4 + 4'
p4352
a(I6
I01
tp4353
aa(lp4354
S'8 / 4 + 5'
p4355
a(I2
I00
tp4356
aa(lp4357
S'8 / 4 + 6'
p4358
a(I7
I00
tp4359
aa(lp4360
S'8 / 4 + 7'
p4361
a(I8
I00
tp4362
aa(lp4363
S'8 / 4 + 8'
p4364
a(I10
I01
tp4365
aa(lp4366
S'8 / 4 + 9'
p4367
a(I11
I01
tp4368
aa(lp4369
S'8 / 4 - 1'
p4370
a(I2
I00
tp4371
aa(lp4372
S'8 / 4 - 2'
p4373
a(I2
I00
tp4374
aa(lp4375
S'8 / 8 + 1'
p4376
a(I6
I00
tp4377
aa(lp4378
S'8 / 8 + 2'
p4379
a(I3
I01
tp4380
aa(lp4381
S'8 / 8 + 3'
p4382
a(I9
I00
tp4383
aa(lp4384
S'8 / 8 + 4'
p4385
a(I5
I01
tp4386
aa(lp4387
S'8 / 8 + 5'
p4388
a(I5
I00
tp4389
aa(lp4390
S'8 / 8 + 6'
p4391
a(I7
I01
tp4392
aa(lp4393
S'8 / 8 + 7'
p4394
a(I8
I01
tp4395
aa(lp4396
S'8 / 8 + 8'
p4397
a(I6
I00
tp4398
aa(lp4399
S'8 / 8 + 9'
p4400
a(I5
I00
tp4401
aa(lp4402
S'8 / 8 - 1'
p4403
a(I1
I00
tp4404
aa(lp4405
S'9 / 1 + 1'
p4406
a(I10
I01
tp4407
aa(lp4408
S'9 / 1 + 2'
p4409
a(I8
I00
tp4410
aa(lp4411
S'9 / 1 + 3'
p4412
a(I8
I00
tp4413
aa(lp4414
S'9 / 1 + 4'
p4415
a(I13
I01
tp4416
aa(lp4417
S'9 / 1 + 5'
p4418
a(I12
I00
tp4419
aa(lp4420
S'9 / 1 + 6'
p4421
a(I10
I00
tp4422
aa(lp4423
S'9 / 1 + 7'
p4424
a(I13
I00
tp4425
aa(lp4426
S'9 / 1 + 8'
p4427
a(I17
I01
tp4428
aa(lp4429
S'9 / 1 + 9'
p4430
a(I17
I00
tp4431
aa(lp4432
S'9 / 1 - 1'
p4433
a(I5
I00
tp4434
aa(lp4435
S'9 / 1 - 2'
p4436
a(I6
I00
tp4437
aa(lp4438
S'9 / 1 - 3'
p4439
a(I4
I00
tp4440
aa(lp4441
S'9 / 1 - 4'
p4442
a(I5
I01
tp4443
aa(lp4444
S'9 / 1 - 5'
p4445
a(I4
I01
tp4446
aa(lp4447
S'9 / 1 - 6'
p4448
a(I2
I00
tp4449
aa(lp4450
S'9 / 1 - 7'
p4451
a(I2
I01
tp4452
aa(lp4453
S'9 / 1 - 8'
p4454
a(I4
I00
tp4455
aa(lp4456
S'9 / 1 - 9'
p4457
a(I2
I00
tp4458
aa(lp4459
S'9 / 3 + 1'
p4460
a(I4
I01
tp4461
aa(lp4462
S'9 / 3 + 2'
p4463
a(I4
I00
tp4464
aa(lp4465
S'9 / 3 + 3'
p4466
a(I4
I00
tp4467
aa(lp4468
S'9 / 3 + 4'
p4469
a(I5
I00
tp4470
aa(lp4471
S'9 / 3 + 5'
p4472
a(I8
I01
tp4473
aa(lp4474
S'9 / 3 + 6'
p4475
a(I6
I00
tp4476
aa(lp4477
S'9 / 3 + 7'
p4478
a(I10
I01
tp4479
aa(lp4480
S'9 / 3 + 8'
p4481
a(I6
I00
tp4482
aa(lp4483
S'9 / 3 + 9'
p4484
a(I10
I00
tp4485
aa(lp4486
S'9 / 3 - 1'
p4487
a(I2
I01
tp4488
aa(lp4489
S'9 / 3 - 2'
p4490
a(I1
I01
tp4491
aa(lp4492
S'9 / 3 - 3'
p4493
a(I2
I00
tp4494
aa(lp4495
S'9 / 9 + 1'
p4496
a(I2
I01
tp4497
aa(lp4498
S'9 / 9 + 2'
p4499
a(I3
I01
tp4500
aa(lp4501
S'9 / 9 + 3'
p4502
a(I4
I01
tp4503
aa(lp4504
S'9 / 9 + 4'
p4505
a(I5
I01
tp4506
aa(lp4507
S'9 / 9 + 5'
p4508
a(I6
I01
tp4509
aa(lp4510
S'9 / 9 + 6'
p4511
a(I7
I01
tp4512
aa(lp4513
S'9 / 9 + 7'
p4514
a(I6
I00
tp4515
aa(lp4516
S'9 / 9 + 8'
p4517
a(I7
I00
tp4518
aa(lp4519
S'9 / 9 + 9'
p4520
a(I5
I00
tp4521
aa(lp4522
S'9 / 9 - 1'
p4523
a(I3
I00
tp4524
aa.